ARM Linker, 5.03 [Build 76] [MDK-ARM Standard]

==============================================================================

Section Cross References

    startup_stm32f10x_hd.o(STACK) refers (Special) to heapauxi.o(.text) for __use_two_region_memory
    startup_stm32f10x_hd.o(HEAP) refers (Special) to heapauxi.o(.text) for __use_two_region_memory
    startup_stm32f10x_hd.o(RESET) refers (Special) to heapauxi.o(.text) for __use_two_region_memory
    startup_stm32f10x_hd.o(RESET) refers to startup_stm32f10x_hd.o(STACK) for __initial_sp
    startup_stm32f10x_hd.o(RESET) refers to startup_stm32f10x_hd.o(.text) for Reset_Handler
    startup_stm32f10x_hd.o(RESET) refers to stm32f10x_it.o(i.NMI_Handler) for NMI_Handler
    startup_stm32f10x_hd.o(RESET) refers to stm32f10x_it.o(i.HardFault_Handler) for HardFault_Handler
    startup_stm32f10x_hd.o(RESET) refers to stm32f10x_it.o(i.MemManage_Handler) for MemManage_Handler
    startup_stm32f10x_hd.o(RESET) refers to stm32f10x_it.o(i.BusFault_Handler) for BusFault_Handler
    startup_stm32f10x_hd.o(RESET) refers to stm32f10x_it.o(i.UsageFault_Handler) for UsageFault_Handler
    startup_stm32f10x_hd.o(RESET) refers to stm32f10x_it.o(i.SVC_Handler) for SVC_Handler
    startup_stm32f10x_hd.o(RESET) refers to stm32f10x_it.o(i.DebugMon_Handler) for DebugMon_Handler
    startup_stm32f10x_hd.o(RESET) refers to os_cpu_a.o(.text) for OS_CPU_PendSVHandler
    startup_stm32f10x_hd.o(RESET) refers to stm32f10x_it.o(i.SysTick_Handler) for SysTick_Handler
    startup_stm32f10x_hd.o(RESET) refers to stm32f10x_it.o(i.EXTI9_5_IRQHandler) for EXTI9_5_IRQHandler
    startup_stm32f10x_hd.o(RESET) refers to stm32f10x_it.o(i.TIM3_IRQHandler) for TIM3_IRQHandler
    startup_stm32f10x_hd.o(.text) refers (Special) to heapauxi.o(.text) for __use_two_region_memory
    startup_stm32f10x_hd.o(.text) refers to system_stm32f10x.o(i.SystemInit) for SystemInit
    startup_stm32f10x_hd.o(.text) refers to __main.o(!!!main) for __main
    startup_stm32f10x_hd.o(.text) refers to startup_stm32f10x_hd.o(HEAP) for Heap_Mem
    startup_stm32f10x_hd.o(.text) refers to startup_stm32f10x_hd.o(STACK) for Stack_Mem
    system_stm32f10x.o(i.SetSysClock) refers to system_stm32f10x.o(i.SetSysClockTo72) for SetSysClockTo72
    system_stm32f10x.o(i.SystemCoreClockUpdate) refers to system_stm32f10x.o(.data) for SystemCoreClock
    system_stm32f10x.o(i.SystemInit) refers to system_stm32f10x.o(i.SetSysClock) for SetSysClock
    task.o(i.AppLEDTask) refers to watchdog.o(i.WatchDogFeed) for WatchDogFeed
    task.o(i.AppLEDTask) refers to os_time.o(i.OSTimeDly) for OSTimeDly
    task.o(i.AppOLEDTask) refers to midfunction.o(i.OLEDDisplay) for OLEDDisplay
    task.o(i.AppOLEDTask) refers to os_time.o(i.OSTimeDly) for OSTimeDly
    task.o(i.AppPowerOffTask) refers to midfunction.o(i.AutoPowerOff) for AutoPowerOff
    task.o(i.AppPowerOffTask) refers to os_time.o(i.OSTimeDly) for OSTimeDly
    task.o(i.AppQueueTask) refers to adc.o(i.EliminateBusCurrentErr) for EliminateBusCurrentErr
    task.o(i.AppQueueTask) refers to midfunction.o(i.Queue_push) for Queue_push
    task.o(i.AppQueueTask) refers to os_time.o(i.OSTimeDly) for OSTimeDly
    task.o(i.AppStartUpTask) refers to delay.o(i.System72MDelay1ms) for System72MDelay1ms
    task.o(i.AppStartUpTask) refers to systemconfig.o(i.SystemGpioConfig) for SystemGpioConfig
    task.o(i.AppStartUpTask) refers to midfunction.o(i.STMOpen) for STMOpen
    task.o(i.AppStartUpTask) refers to task.o(i.TaskCreate) for TaskCreate
    task.o(i.AppStartUpTask) refers to os_task.o(i.OSTaskDel) for OSTaskDel
    task.o(i.AppTestTask) refers to midfunction.o(i.Sound) for Sound
    task.o(i.AppTestTask) refers to os_time.o(i.OSTimeDly) for OSTimeDly
    task.o(i.AppTestTask) refers to midfunction.o(.bss) for queue
    task.o(i.AppUsbTask) refers to os_sem.o(i.OSSemCreate) for OSSemCreate
    task.o(i.AppUsbTask) refers to midfunction.o(i.UsbIdentify) for UsbIdentify
    task.o(i.AppUsbTask) refers to os_sem.o(i.OSSemPend) for OSSemPend
    task.o(i.AppUsbTask) refers to package.o(i.Unpack) for Unpack
    task.o(i.AppUsbTask) refers to guestrespond.o(i.GuestRespond) for GuestRespond
    task.o(i.AppUsbTask) refers to package.o(i.Pack) for Pack
    task.o(i.AppUsbTask) refers to ch374devicehid.o(i.DeviceHidSendData) for DeviceHidSendData
    task.o(i.AppUsbTask) refers to task.o(.data) for MsgSem
    task.o(i.AppUsbTask) refers to ch374devicehid.o(.bss) for HidData
    task.o(i.AppUsbTask) refers to guestrespond.o(.bss) for GusetTempBuffer
    task.o(i.TaskCreate) refers to os_task.o(i.OSTaskCreateExt) for OSTaskCreateExt
    task.o(i.TaskCreate) refers to task.o(.bss) for PrivateStk
    task.o(i.TaskCreate) refers to task.o(i.AppStartUpTask) for AppStartUpTask
    task.o(i.TaskCreate) refers to task.o(i.AppLEDTask) for AppLEDTask
    task.o(i.TaskCreate) refers to task.o(i.AppOLEDTask) for AppOLEDTask
    task.o(i.TaskCreate) refers to task.o(i.AppUsbTask) for AppUsbTask
    task.o(i.TaskCreate) refers to task.o(i.AppTestTask) for AppTestTask
    task.o(i.TaskCreate) refers to task.o(i.AppPowerOffTask) for AppPowerOffTask
    task.o(i.TaskCreate) refers to task.o(i.AppQueueTask) for AppQueueTask
    stm32f10x_it.o(i.EXTI9_5_IRQHandler) refers to os_core.o(i.OSIntEnter) for OSIntEnter
    stm32f10x_it.o(i.EXTI9_5_IRQHandler) refers to stm32f10x_exti.o(i.EXTI_GetITStatus) for EXTI_GetITStatus
    stm32f10x_it.o(i.EXTI9_5_IRQHandler) refers to stm32f10x_exti.o(i.EXTI_ClearITPendingBit) for EXTI_ClearITPendingBit
    stm32f10x_it.o(i.EXTI9_5_IRQHandler) refers to ch374devicehid.o(i.CH374InterruptCallBack) for CH374InterruptCallBack
    stm32f10x_it.o(i.EXTI9_5_IRQHandler) refers to os_core.o(i.OSIntExit) for OSIntExit
    stm32f10x_it.o(i.SysTick_Handler) refers to os_core.o(i.OSIntEnter) for OSIntEnter
    stm32f10x_it.o(i.SysTick_Handler) refers to os_core.o(i.OSTimeTick) for OSTimeTick
    stm32f10x_it.o(i.SysTick_Handler) refers to os_core.o(i.OSIntExit) for OSIntExit
    stm32f10x_it.o(i.SysTick_Handler) refers to stm32f10x_it.o(.data) for TickCounter
    stm32f10x_it.o(i.TIM3_IRQHandler) refers to os_core.o(i.OSIntEnter) for OSIntEnter
    stm32f10x_it.o(i.TIM3_IRQHandler) refers to stm32f10x_tim.o(i.TIM_GetITStatus) for TIM_GetITStatus
    stm32f10x_it.o(i.TIM3_IRQHandler) refers to stm32f10x_tim.o(i.TIM_ClearITPendingBit) for TIM_ClearITPendingBit
    stm32f10x_it.o(i.TIM3_IRQHandler) refers to os_core.o(i.OSIntExit) for OSIntExit
    stm32f10x_it.o(i.TIM3_IRQHandler) refers to task.o(.data) for op_data
    systemconfig.o(i.GpioConfig) refers to stm32f10x_rcc.o(i.RCC_APB2PeriphClockCmd) for RCC_APB2PeriphClockCmd
    systemconfig.o(i.GpioConfig) refers to stm32f10x_gpio.o(i.GPIO_Init) for GPIO_Init
    systemconfig.o(i.GpioConfig) refers to stm32f10x_gpio.o(i.GPIO_SetBits) for GPIO_SetBits
    systemconfig.o(i.GpioConfig) refers to stm32f10x_gpio.o(i.GPIO_ResetBits) for GPIO_ResetBits
    systemconfig.o(i.SystemGpioConfig) refers to delay.o(i.SysTickConfig) for SysTickConfig
    systemconfig.o(i.SystemGpioConfig) refers to recorder.o(i.ReadFactoryConfigParam) for ReadFactoryConfigParam
    systemconfig.o(i.SystemGpioConfig) refers to package.o(i.PackageKeyInit) for PackageKeyInit
    systemconfig.o(i.SystemGpioConfig) refers to led.o(i.LEDConfig) for LEDConfig
    systemconfig.o(i.SystemGpioConfig) refers to ch374interface.o(i.Ch374HardWareConfig) for Ch374HardWareConfig
    systemconfig.o(i.SystemGpioConfig) refers to ch374device.o(i.CH374DeviceInit) for CH374DeviceInit
    systemconfig.o(i.SystemGpioConfig) refers to i2c.o(i.I2C_GPIO_Config) for I2C_GPIO_Config
    systemconfig.o(i.SystemGpioConfig) refers to lcd.o(i.LcdInit) for LcdInit
    systemconfig.o(i.SystemGpioConfig) refers to adc.o(i.AdcConfig) for AdcConfig
    systemconfig.o(i.SystemGpioConfig) refers to systemconfig.o(i.GpioConfig) for GpioConfig
    systemconfig.o(i.SystemGpioConfig) refers to midfunction.o(i.Queue_Init) for Queue_Init
    systemconfig.o(i.SystemGpioConfig) refers to watchdog.o(i.WatchDogInit) for WatchDogInit
    systemconfig.o(i.SystemGpioConfig) refers to task.o(.bss) for DeviceInfo
    systemconfig.o(i.SystemGpioConfig) refers to task.o(.data) for op_data
    guestrespond.o(i.GetDecValueFromSeparator) refers to _scanf_int.o(.text) for _scanf_int
    guestrespond.o(i.GetDecValueFromSeparator) refers to rt_memclr_w.o(.text) for __aeabi_memclr4
    guestrespond.o(i.GetDecValueFromSeparator) refers to rt_memcpy_v6.o(.text) for __aeabi_memcpy
    guestrespond.o(i.GetDecValueFromSeparator) refers to __0sscanf.o(.text) for __0sscanf
    guestrespond.o(i.GetGeneralRespondData) refers to task.o(.bss) for DeviceInfo
    guestrespond.o(i.GuestRespond) refers to _printf_percent.o(.ARM.Collect$$_printf_percent$$00000000) for _printf_percent
    guestrespond.o(i.GuestRespond) refers to _printf_u.o(.ARM.Collect$$_printf_percent$$0000000A) for _printf_u
    guestrespond.o(i.GuestRespond) refers to _printf_dec.o(.text) for _printf_int_dec
    guestrespond.o(i.GuestRespond) refers to _printf_pad.o(.text) for _printf_pre_padding
    guestrespond.o(i.GuestRespond) refers to _printf_d.o(.ARM.Collect$$_printf_percent$$00000009) for _printf_d
    guestrespond.o(i.GuestRespond) refers to rt_memclr.o(.text) for __aeabi_memclr
    guestrespond.o(i.GuestRespond) refers to guestrespond.o(i.GetGeneralRespondData) for GetGeneralRespondData
    guestrespond.o(i.GuestRespond) refers to strcpy.o(.text) for strcpy
    guestrespond.o(i.GuestRespond) refers to guestrespond.o(i.GetBufferStringLenght) for GetBufferStringLenght
    guestrespond.o(i.GuestRespond) refers to strncpy.o(.text) for strncpy
    guestrespond.o(i.GuestRespond) refers to rt_memcpy_v6.o(.text) for __aeabi_memcpy
    guestrespond.o(i.GuestRespond) refers to recorder.o(i.WriteFactoryConfigParam) for WriteFactoryConfigParam
    guestrespond.o(i.GuestRespond) refers to os_task.o(i.OSTaskSuspend) for OSTaskSuspend
    guestrespond.o(i.GuestRespond) refers to stm32f10x_gpio.o(i.GPIO_ResetBits) for GPIO_ResetBits
    guestrespond.o(i.GuestRespond) refers to stm32f10x_gpio.o(i.GPIO_SetBits) for GPIO_SetBits
    guestrespond.o(i.GuestRespond) refers to adc.o(i.GetBusCurrent) for GetBusCurrent
    guestrespond.o(i.GuestRespond) refers to __2sprintf.o(.text) for __2sprintf
    guestrespond.o(i.GuestRespond) refers to adc.o(i.GetBusVoltage) for GetBusVoltage
    guestrespond.o(i.GuestRespond) refers to guestrespond.o(i.GetDecValueFromSeparator) for GetDecValueFromSeparator
    guestrespond.o(i.GuestRespond) refers to fmul.o(x$fpl$fmul) for __aeabi_fmul
    guestrespond.o(i.GuestRespond) refers to ffixu.o(x$fpl$ffixu) for __aeabi_f2uiz
    guestrespond.o(i.GuestRespond) refers to task.o(.bss) for DeviceInfo
    guestrespond.o(i.GuestRespond) refers to adc.o(.bss) for adc_adjust
    guestrespond.o(i.GuestRespond) refers to dflt_clz.o(x$fpl$dfltu) for __aeabi_ui2d
    guestrespond.o(i.GuestRespond) refers to ddiv.o(x$fpl$ddiv) for __aeabi_ddiv
    guestrespond.o(i.GuestRespond) refers to d2f.o(x$fpl$d2f) for __aeabi_d2f
    guestrespond.o(i.GuestRespond) refers to os_task.o(i.OSTaskResume) for OSTaskResume
    guestrespond.o(i.GuestRespond) refers to rt_memclr_w.o(.text) for __aeabi_memclr4
    guestrespond.o(i.GuestRespond) refers to recorder.o(i.SetStayInBoot) for SetStayInBoot
    guestrespond.o(i.GuestRespond) refers to recorder.o(i.SoftReset) for SoftReset
    midfunction.o(i.AutoPowerOff) refers to adc.o(i.GetAdcValue) for GetAdcValue
    midfunction.o(i.AutoPowerOff) refers to lcd.o(i.LcdClear) for LcdClear
    midfunction.o(i.AutoPowerOff) refers to recorder.o(i.SoftReset) for SoftReset
    midfunction.o(i.OLEDDisplay) refers to _printf_percent.o(.ARM.Collect$$_printf_percent$$00000000) for _printf_percent
    midfunction.o(i.OLEDDisplay) refers to _printf_f.o(.ARM.Collect$$_printf_percent$$00000003) for _printf_f
    midfunction.o(i.OLEDDisplay) refers to printf1.o(x$fpl$printf1) for _printf_fp_dec
    midfunction.o(i.OLEDDisplay) refers to os_task.o(i.OSTaskSuspend) for OSTaskSuspend
    midfunction.o(i.OLEDDisplay) refers to lcdutils.o(i.LcdShowStr2Center) for LcdShowStr2Center
    midfunction.o(i.OLEDDisplay) refers to os_time.o(i.OSTimeDly) for OSTimeDly
    midfunction.o(i.OLEDDisplay) refers to adc.o(i.GetBatteryVoltage) for GetBatteryVoltage
    midfunction.o(i.OLEDDisplay) refers to fflt_clz.o(x$fpl$ffltu) for __aeabi_ui2f
    midfunction.o(i.OLEDDisplay) refers to fdiv.o(x$fpl$fdiv) for __aeabi_fdiv
    midfunction.o(i.OLEDDisplay) refers to f2d.o(x$fpl$f2d) for __aeabi_f2d
    midfunction.o(i.OLEDDisplay) refers to __2sprintf.o(.text) for __2sprintf
    midfunction.o(i.OLEDDisplay) refers to lcdutils.o(i.LcdShowStrCenter) for LcdShowStrCenter
    midfunction.o(i.OLEDDisplay) refers to adc.o(i.BusIsShort) for BusIsShort
    midfunction.o(i.OLEDDisplay) refers to stm32f10x_gpio.o(i.GPIO_ResetBits) for GPIO_ResetBits
    midfunction.o(i.OLEDDisplay) refers to midfunction.o(i.Sound) for Sound
    midfunction.o(i.OLEDDisplay) refers to stm32f10x_gpio.o(i.GPIO_SetBits) for GPIO_SetBits
    midfunction.o(i.OLEDDisplay) refers to adc.o(i.BusLeakIsShort) for BusLeakIsShort
    midfunction.o(i.OLEDDisplay) refers to adc.o(i.GetBusVoltage) for GetBusVoltage
    midfunction.o(i.OLEDDisplay) refers to adc.o(i.EliminateBusCurrentErr) for EliminateBusCurrentErr
    midfunction.o(i.OLEDDisplay) refers to os_task.o(i.OSTaskResume) for OSTaskResume
    midfunction.o(i.OLEDDisplay) refers to task.o(.data) for op_data
    midfunction.o(i.PowerOffCheck) refers to stm32f10x_rcc.o(i.RCC_GetFlagStatus) for RCC_GetFlagStatus
    midfunction.o(i.PowerOffCheck) refers to stm32f10x_rcc.o(i.RCC_ClearFlag) for RCC_ClearFlag
    midfunction.o(i.PowerOffCheck) refers to midfunction.o(i.Sys_Enter_Standby) for Sys_Enter_Standby
    midfunction.o(i.PowerOffCheck) refers to watchdog.o(i.WatchDogInit) for WatchDogInit
    midfunction.o(i.Queue_Init) refers to midfunction.o(.bss) for queue
    midfunction.o(i.Queue_push) refers to midfunction.o(.bss) for queue
    midfunction.o(i.STMOpen) refers to adc.o(i.GetBatteryVoltage) for GetBatteryVoltage
    midfunction.o(i.STMOpen) refers to midfunction.o(i.Sound) for Sound
    midfunction.o(i.Sound) refers to stm32f10x_gpio.o(i.GPIO_SetBits) for GPIO_SetBits
    midfunction.o(i.Sound) refers to stm32f10x_gpio.o(i.GPIO_ResetBits) for GPIO_ResetBits
    midfunction.o(i.Sound) refers to os_time.o(i.OSTimeDly) for OSTimeDly
    midfunction.o(i.Sys_Enter_Standby) refers to stm32f10x_rcc.o(i.RCC_APB2PeriphResetCmd) for RCC_APB2PeriphResetCmd
    midfunction.o(i.Sys_Enter_Standby) refers to stm32f10x_rcc.o(i.RCC_APB1PeriphClockCmd) for RCC_APB1PeriphClockCmd
    midfunction.o(i.Sys_Enter_Standby) refers to stm32f10x_pwr.o(i.PWR_WakeUpPinCmd) for PWR_WakeUpPinCmd
    midfunction.o(i.Sys_Enter_Standby) refers to stm32f10x_pwr.o(i.PWR_EnterSTANDBYMode) for PWR_EnterSTANDBYMode
    midfunction.o(i.Time3_Init) refers to stm32f10x_rcc.o(i.RCC_APB1PeriphClockCmd) for RCC_APB1PeriphClockCmd
    midfunction.o(i.Time3_Init) refers to stm32f10x_tim.o(i.TIM_TimeBaseInit) for TIM_TimeBaseInit
    midfunction.o(i.Time3_Init) refers to stm32f10x_tim.o(i.TIM_ITConfig) for TIM_ITConfig
    midfunction.o(i.Time3_Init) refers to misc.o(i.NVIC_Init) for NVIC_Init
    midfunction.o(i.Time3_Init) refers to stm32f10x_tim.o(i.TIM_Cmd) for TIM_Cmd
    midfunction.o(i.UsbIdentify) refers to stm32f10x_gpio.o(i.GPIO_ReadInputDataBit) for GPIO_ReadInputDataBit
    midfunction.o(i.UsbIdentify) refers to stm32f10x_gpio.o(i.GPIO_ResetBits) for GPIO_ResetBits
    midfunction.o(i.UsbIdentify) refers to stm32f10x_gpio.o(i.GPIO_SetBits) for GPIO_SetBits
    recorder.o(i.ReadFactoryConfigParam) refers to recorder.o(i.ReadFlashDataWithCRC16) for ReadFlashDataWithCRC16
    recorder.o(i.ReadFactoryConfigParam) refers to rt_memcpy_w.o(.text) for __aeabi_memcpy4
    recorder.o(i.ReadFactoryConfigParam) refers to task.o(.bss) for DeviceInfo
    recorder.o(i.ReadFactoryConfigParam) refers to adc.o(.bss) for adc_adjust
    recorder.o(i.ReadFlashDataWithCRC16) refers to crc16.o(i.GetCrc16Value) for GetCrc16Value
    recorder.o(i.ReadFlashDataWithCRC16) refers to rt_memclr.o(.text) for __aeabi_memclr
    recorder.o(i.SetStayInBoot) refers to stm32f10x_flash.o(i.FLASH_Unlock) for FLASH_Unlock
    recorder.o(i.SetStayInBoot) refers to stm32f10x_flash.o(i.FLASH_ClearFlag) for FLASH_ClearFlag
    recorder.o(i.SetStayInBoot) refers to stm32f10x_flash.o(i.FLASH_ErasePage) for FLASH_ErasePage
    recorder.o(i.SetStayInBoot) refers to stm32f10x_flash.o(i.FLASH_ProgramHalfWord) for FLASH_ProgramHalfWord
    recorder.o(i.WriteFactoryConfigParam) refers to stm32f10x_flash.o(i.FLASH_Unlock) for FLASH_Unlock
    recorder.o(i.WriteFactoryConfigParam) refers to stm32f10x_flash.o(i.FLASH_ClearFlag) for FLASH_ClearFlag
    recorder.o(i.WriteFactoryConfigParam) refers to stm32f10x_flash.o(i.FLASH_ErasePage) for FLASH_ErasePage
    recorder.o(i.WriteFactoryConfigParam) refers to recorder.o(i.WriteFlashDataWithCRC16) for WriteFlashDataWithCRC16
    recorder.o(i.WriteFactoryConfigParam) refers to rt_memclr_w.o(.text) for __aeabi_memclr4
    recorder.o(i.WriteFactoryConfigParam) refers to rt_memcpy_w.o(.text) for __aeabi_memcpy4
    recorder.o(i.WriteFactoryConfigParam) refers to task.o(.bss) for DeviceInfo
    recorder.o(i.WriteFactoryConfigParam) refers to adc.o(.bss) for adc_adjust
    recorder.o(i.WriteFlashDataWithCRC16) refers to crc16.o(i.GetCrc16Value) for GetCrc16Value
    recorder.o(i.WriteFlashDataWithCRC16) refers to stm32f10x_flash.o(i.FLASH_Unlock) for FLASH_Unlock
    recorder.o(i.WriteFlashDataWithCRC16) refers to stm32f10x_flash.o(i.FLASH_ProgramHalfWord) for FLASH_ProgramHalfWord
    recorder.o(i.WriteFlashDataWithCRC16) refers to stm32f10x_flash.o(i.FLASH_Lock) for FLASH_Lock
    watchdog.o(i.WatchDogFeed) refers to stm32f10x_iwdg.o(i.IWDG_ReloadCounter) for IWDG_ReloadCounter
    watchdog.o(i.WatchDogInit) refers to stm32f10x_iwdg.o(i.IWDG_WriteAccessCmd) for IWDG_WriteAccessCmd
    watchdog.o(i.WatchDogInit) refers to stm32f10x_iwdg.o(i.IWDG_SetPrescaler) for IWDG_SetPrescaler
    watchdog.o(i.WatchDogInit) refers to stm32f10x_iwdg.o(i.IWDG_SetReload) for IWDG_SetReload
    watchdog.o(i.WatchDogInit) refers to stm32f10x_iwdg.o(i.IWDG_ReloadCounter) for IWDG_ReloadCounter
    watchdog.o(i.WatchDogInit) refers to stm32f10x_iwdg.o(i.IWDG_Enable) for IWDG_Enable
    main.o(i.main) refers to misc.o(i.NVIC_SetVectorTable) for NVIC_SetVectorTable
    main.o(i.main) refers to os_core.o(i.OSInit) for OSInit
    main.o(i.main) refers to task.o(i.TaskCreate) for TaskCreate
    main.o(i.main) refers to os_core.o(i.OSStart) for OSStart
    adc.o(i.Adc2VoltageOrCurrent) refers to fmul.o(x$fpl$fmul) for __aeabi_fmul
    adc.o(i.Adc2VoltageOrCurrent) refers to ffixu.o(x$fpl$ffixu) for __aeabi_f2uiz
    adc.o(i.Adc2VoltageOrCurrent) refers to fflt_clz.o(x$fpl$ffltu) for __aeabi_ui2f
    adc.o(i.Adc2VoltageOrCurrent) refers to ffix.o(x$fpl$ffix) for __aeabi_f2iz
    adc.o(i.Adc2VoltageOrCurrent) refers to fflt_clz.o(x$fpl$fflt) for __aeabi_i2f
    adc.o(i.Adc2VoltageOrCurrent) refers to faddsub_clz.o(x$fpl$fsub) for __aeabi_fsub
    adc.o(i.Adc2VoltageOrCurrent) refers to faddsub_clz.o(x$fpl$fadd) for __aeabi_fadd
    adc.o(i.AdcConfig) refers to stm32f10x_rcc.o(i.RCC_APB2PeriphClockCmd) for RCC_APB2PeriphClockCmd
    adc.o(i.AdcConfig) refers to stm32f10x_gpio.o(i.GPIO_Init) for GPIO_Init
    adc.o(i.AdcConfig) refers to stm32f10x_rcc.o(i.RCC_ADCCLKConfig) for RCC_ADCCLKConfig
    adc.o(i.AdcConfig) refers to stm32f10x_adc.o(i.ADC_Init) for ADC_Init
    adc.o(i.AdcConfig) refers to stm32f10x_adc.o(i.ADC_Cmd) for ADC_Cmd
    adc.o(i.AdcConfig) refers to stm32f10x_adc.o(i.ADC_ResetCalibration) for ADC_ResetCalibration
    adc.o(i.AdcConfig) refers to stm32f10x_adc.o(i.ADC_GetResetCalibrationStatus) for ADC_GetResetCalibrationStatus
    adc.o(i.AdcConfig) refers to stm32f10x_adc.o(i.ADC_StartCalibration) for ADC_StartCalibration
    adc.o(i.AdcConfig) refers to stm32f10x_adc.o(i.ADC_GetCalibrationStatus) for ADC_GetCalibrationStatus
    adc.o(i.AdcLock) refers to os_mutex.o(i.OSMutexCreate) for OSMutexCreate
    adc.o(i.AdcLock) refers to os_mutex.o(i.OSMutexPend) for OSMutexPend
    adc.o(i.AdcLock) refers to adc.o(.data) for AdcMutex
    adc.o(i.AdcUnlock) refers to os_mutex.o(i.OSMutexPost) for OSMutexPost
    adc.o(i.AdcUnlock) refers to adc.o(.data) for AdcMutex
    adc.o(i.BusCurrentIsZero) refers to adc.o(i.EliminateBusCurrentErr) for EliminateBusCurrentErr
    adc.o(i.BusIsShort) refers to adc.o(i.GetBusCurrent) for GetBusCurrent
    adc.o(i.BusLeakIsShort) refers to adc.o(i.GetBusLeakCurrent) for GetBusLeakCurrent
    adc.o(i.BusLeakIsShort) refers to os_time.o(i.OSTimeDly) for OSTimeDly
    adc.o(i.DetIsInsert) refers to adc.o(i.EliminateBusCurrentErr) for EliminateBusCurrentErr
    adc.o(i.DetIsInsert) refers to os_time.o(i.OSTimeDly) for OSTimeDly
    adc.o(i.EliminateBusCurrentErr) refers to adc.o(i.GetBusCurrent) for GetBusCurrent
    adc.o(i.EliminateBusCurrentErr) refers to adc.o(i.U16DataFallRank) for U16DataFallRank
    adc.o(i.GetAdcValue) refers to stm32f10x_adc.o(i.ADC_RegularChannelConfig) for ADC_RegularChannelConfig
    adc.o(i.GetAdcValue) refers to stm32f10x_adc.o(i.ADC_SoftwareStartConvCmd) for ADC_SoftwareStartConvCmd
    adc.o(i.GetAdcValue) refers to stm32f10x_adc.o(i.ADC_GetFlagStatus) for ADC_GetFlagStatus
    adc.o(i.GetAdcValue) refers to stm32f10x_adc.o(i.ADC_GetConversionValue) for ADC_GetConversionValue
    adc.o(i.GetAdcValue) refers to delay.o(i.System72MDelay10us) for System72MDelay10us
    adc.o(i.GetAdcValue) refers to stm32f10x_adc.o(i.ADC_ClearFlag) for ADC_ClearFlag
    adc.o(i.GetAdcValue) refers to adc.o(i.U16DataFallRank) for U16DataFallRank
    adc.o(i.GetBatteryVoltage) refers to adc.o(i.AdcLock) for AdcLock
    adc.o(i.GetBatteryVoltage) refers to adc.o(i.GetAdcValue) for GetAdcValue
    adc.o(i.GetBatteryVoltage) refers to dflt_clz.o(x$fpl$dfltu) for __aeabi_ui2d
    adc.o(i.GetBatteryVoltage) refers to dmul.o(x$fpl$dmul) for __aeabi_dmul
    adc.o(i.GetBatteryVoltage) refers to dfixu.o(x$fpl$dfixu) for __aeabi_d2uiz
    adc.o(i.GetBatteryVoltage) refers to adc.o(i.AdcUnlock) for AdcUnlock
    adc.o(i.GetBusCurrent) refers to adc.o(i.AdcLock) for AdcLock
    adc.o(i.GetBusCurrent) refers to stm32f10x_gpio.o(i.GPIO_ResetBits) for GPIO_ResetBits
    adc.o(i.GetBusCurrent) refers to delay.o(i.System72MDelay100us) for System72MDelay100us
    adc.o(i.GetBusCurrent) refers to adc.o(i.GetAdcValue) for GetAdcValue
    adc.o(i.GetBusCurrent) refers to adc.o(i.Adc2VoltageOrCurrent) for Adc2VoltageOrCurrent
    adc.o(i.GetBusCurrent) refers to stm32f10x_gpio.o(i.GPIO_SetBits) for GPIO_SetBits
    adc.o(i.GetBusCurrent) refers to adc.o(i.AdcUnlock) for AdcUnlock
    adc.o(i.GetBusCurrent) refers to adc.o(.bss) for adc_adjust
    adc.o(i.GetBusLeakCurrent) refers to adc.o(i.AdcLock) for AdcLock
    adc.o(i.GetBusLeakCurrent) refers to stm32f10x_gpio.o(i.GPIO_SetBits) for GPIO_SetBits
    adc.o(i.GetBusLeakCurrent) refers to stm32f10x_gpio.o(i.GPIO_ResetBits) for GPIO_ResetBits
    adc.o(i.GetBusLeakCurrent) refers to delay.o(i.System72MDelay1ms) for System72MDelay1ms
    adc.o(i.GetBusLeakCurrent) refers to delay.o(i.System72MDelay100us) for System72MDelay100us
    adc.o(i.GetBusLeakCurrent) refers to adc.o(i.GetAdcValue) for GetAdcValue
    adc.o(i.GetBusLeakCurrent) refers to adc.o(i.Adc2VoltageOrCurrent) for Adc2VoltageOrCurrent
    adc.o(i.GetBusLeakCurrent) refers to adc.o(i.U16DataFallRank) for U16DataFallRank
    adc.o(i.GetBusLeakCurrent) refers to adc.o(i.AdcUnlock) for AdcUnlock
    adc.o(i.GetBusLeakCurrent) refers to adc.o(.bss) for adc_adjust
    adc.o(i.GetBusVoltage) refers to adc.o(i.GetLinABAdcValue) for GetLinABAdcValue
    adc.o(i.GetBusVoltage) refers to delay.o(i.System72MDelay1ms) for System72MDelay1ms
    adc.o(i.GetBusVoltage) refers to adc.o(i.U16DataFallRank) for U16DataFallRank
    adc.o(i.GetBusVoltage) refers to adc.o(i.GetBusVoltageFromAdcValue) for GetBusVoltageFromAdcValue
    adc.o(i.GetBusVoltageFromAdcValue) refers to fmul.o(x$fpl$fmul) for __aeabi_fmul
    adc.o(i.GetBusVoltageFromAdcValue) refers to ffixu.o(x$fpl$ffixu) for __aeabi_f2uiz
    adc.o(i.GetBusVoltageFromAdcValue) refers to dflt_clz.o(x$fpl$dfltu) for __aeabi_ui2d
    adc.o(i.GetBusVoltageFromAdcValue) refers to dmul.o(x$fpl$dmul) for __aeabi_dmul
    adc.o(i.GetBusVoltageFromAdcValue) refers to dfix.o(x$fpl$dfix) for __aeabi_d2iz
    adc.o(i.GetBusVoltageFromAdcValue) refers to fflt_clz.o(x$fpl$fflt) for __aeabi_i2f
    adc.o(i.GetBusVoltageFromAdcValue) refers to fflt_clz.o(x$fpl$ffltu) for __aeabi_ui2f
    adc.o(i.GetBusVoltageFromAdcValue) refers to faddsub_clz.o(x$fpl$fsub) for __aeabi_fsub
    adc.o(i.GetBusVoltageFromAdcValue) refers to ffix.o(x$fpl$ffix) for __aeabi_f2iz
    adc.o(i.GetBusVoltageFromAdcValue) refers to faddsub_clz.o(x$fpl$fadd) for __aeabi_fadd
    adc.o(i.GetBusVoltageFromAdcValue) refers to adc.o(.bss) for adc_adjust
    adc.o(i.GetChannelxVoltage) refers to adc.o(i.AdcLock) for AdcLock
    adc.o(i.GetChannelxVoltage) refers to adc.o(i.GetAdcValue) for GetAdcValue
    adc.o(i.GetChannelxVoltage) refers to dflt_clz.o(x$fpl$dfltu) for __aeabi_ui2d
    adc.o(i.GetChannelxVoltage) refers to dmul.o(x$fpl$dmul) for __aeabi_dmul
    adc.o(i.GetChannelxVoltage) refers to adc.o(i.AdcUnlock) for AdcUnlock
    adc.o(i.GetChannelxVoltage) refers to dfixu.o(x$fpl$dfixu) for __aeabi_d2uiz
    adc.o(i.GetLinABAdcValue) refers to adc.o(i.AdcLock) for AdcLock
    adc.o(i.GetLinABAdcValue) refers to adc.o(i.GetAdcValue) for GetAdcValue
    adc.o(i.GetLinABAdcValue) refers to adc.o(i.AdcUnlock) for AdcUnlock
    adc.o(i.U16DataFallRank) refers to rt_memcpy_v6.o(.text) for __aeabi_memcpy
    aes.o(i.aes_decrypt) refers to aes.o(.constdata) for RT0
    aes.o(i.aes_encrypt) refers to aes.o(.constdata) for FT0
    aes.o(i.aes_set_key) refers to aes.o(i.aes_gen_tables) for aes_gen_tables
    aes.o(i.aes_set_key) refers to aes.o(.data) for do_init
    aes.o(i.aes_set_key) refers to aes.o(.constdata) for RCON
    aes.o(i.aes_set_key) refers to aes.o(.bss) for KT0
    crc16.o(i.GetCrc16Value) refers to crc16.o(.constdata) for auch_CRCHi
    delay.o(i.SysTickConfig) refers to stm32f10x_rcc.o(i.RCC_GetClocksFreq) for RCC_GetClocksFreq
    delay.o(i.System72MDelay10us) refers to delay.o(i.System72MDelay1us) for System72MDelay1us
    delay.o(i.System72MDelay1ms) refers to delay.o(i.System72MDelay100us) for System72MDelay100us
    i2c.o(i.I2C_Ack) refers to i2c.o(i.I2C_Delay) for I2C_Delay
    i2c.o(i.I2C_Ack) refers to stm32f10x_gpio.o(i.GPIO_ResetBits) for GPIO_ResetBits
    i2c.o(i.I2C_Ack) refers to stm32f10x_gpio.o(i.GPIO_SetBits) for GPIO_SetBits
    i2c.o(i.I2C_Delay) refers to delay.o(i.System72MDelay1us) for System72MDelay1us
    i2c.o(i.I2C_FromBusyToIdle) refers to i2c.o(i.I2C_Delay) for I2C_Delay
    i2c.o(i.I2C_FromBusyToIdle) refers to stm32f10x_gpio.o(i.GPIO_ResetBits) for GPIO_ResetBits
    i2c.o(i.I2C_FromBusyToIdle) refers to stm32f10x_gpio.o(i.GPIO_SetBits) for GPIO_SetBits
    i2c.o(i.I2C_GPIO_Config) refers to stm32f10x_rcc.o(i.RCC_APB2PeriphClockCmd) for RCC_APB2PeriphClockCmd
    i2c.o(i.I2C_GPIO_Config) refers to stm32f10x_gpio.o(i.GPIO_Init) for GPIO_Init
    i2c.o(i.I2C_GPIO_Config) refers to stm32f10x_gpio.o(i.GPIO_SetBits) for GPIO_SetBits
    i2c.o(i.I2C_NoAck) refers to i2c.o(i.I2C_Delay) for I2C_Delay
    i2c.o(i.I2C_NoAck) refers to stm32f10x_gpio.o(i.GPIO_ResetBits) for GPIO_ResetBits
    i2c.o(i.I2C_NoAck) refers to stm32f10x_gpio.o(i.GPIO_SetBits) for GPIO_SetBits
    i2c.o(i.I2C_ReadByte) refers to i2c.o(i.I2C_Start) for I2C_Start
    i2c.o(i.I2C_ReadByte) refers to i2c.o(i.I2C_SendByte) for I2C_SendByte
    i2c.o(i.I2C_ReadByte) refers to i2c.o(i.I2C_WaitAck) for I2C_WaitAck
    i2c.o(i.I2C_ReadByte) refers to i2c.o(i.I2C_Stop) for I2C_Stop
    i2c.o(i.I2C_ReadByte) refers to i2c.o(i.I2C_ReceiveByte) for I2C_ReceiveByte
    i2c.o(i.I2C_ReadByte) refers to i2c.o(i.I2C_NoAck) for I2C_NoAck
    i2c.o(i.I2C_ReadData) refers to rt_memclr.o(.text) for __aeabi_memclr
    i2c.o(i.I2C_ReadData) refers to i2c.o(i.I2C_Start) for I2C_Start
    i2c.o(i.I2C_ReadData) refers to i2c.o(i.I2C_SendByte) for I2C_SendByte
    i2c.o(i.I2C_ReadData) refers to i2c.o(i.I2C_WaitAck) for I2C_WaitAck
    i2c.o(i.I2C_ReadData) refers to i2c.o(i.I2C_Stop) for I2C_Stop
    i2c.o(i.I2C_ReadData) refers to i2c.o(i.I2C_ReceiveByte) for I2C_ReceiveByte
    i2c.o(i.I2C_ReadData) refers to i2c.o(i.I2C_Ack) for I2C_Ack
    i2c.o(i.I2C_ReadData) refers to i2c.o(i.I2C_NoAck) for I2C_NoAck
    i2c.o(i.I2C_ReceiveByte) refers to i2c.o(i.I2C_Delay) for I2C_Delay
    i2c.o(i.I2C_ReceiveByte) refers to stm32f10x_gpio.o(i.GPIO_SetBits) for GPIO_SetBits
    i2c.o(i.I2C_ReceiveByte) refers to stm32f10x_gpio.o(i.GPIO_ResetBits) for GPIO_ResetBits
    i2c.o(i.I2C_ReceiveByte) refers to stm32f10x_gpio.o(i.GPIO_ReadInputDataBit) for GPIO_ReadInputDataBit
    i2c.o(i.I2C_SendByte) refers to i2c.o(i.I2C_Delay) for I2C_Delay
    i2c.o(i.I2C_SendByte) refers to stm32f10x_gpio.o(i.GPIO_ResetBits) for GPIO_ResetBits
    i2c.o(i.I2C_SendByte) refers to stm32f10x_gpio.o(i.GPIO_SetBits) for GPIO_SetBits
    i2c.o(i.I2C_Start) refers to i2c.o(i.I2C_Delay) for I2C_Delay
    i2c.o(i.I2C_Start) refers to stm32f10x_gpio.o(i.GPIO_SetBits) for GPIO_SetBits
    i2c.o(i.I2C_Start) refers to stm32f10x_gpio.o(i.GPIO_ReadInputDataBit) for GPIO_ReadInputDataBit
    i2c.o(i.I2C_Start) refers to i2c.o(i.I2C_FromBusyToIdle) for I2C_FromBusyToIdle
    i2c.o(i.I2C_Start) refers to stm32f10x_gpio.o(i.GPIO_ResetBits) for GPIO_ResetBits
    i2c.o(i.I2C_Stop) refers to i2c.o(i.I2C_Delay) for I2C_Delay
    i2c.o(i.I2C_Stop) refers to stm32f10x_gpio.o(i.GPIO_ResetBits) for GPIO_ResetBits
    i2c.o(i.I2C_Stop) refers to stm32f10x_gpio.o(i.GPIO_SetBits) for GPIO_SetBits
    i2c.o(i.I2C_WaitAck) refers to i2c.o(i.I2C_Delay) for I2C_Delay
    i2c.o(i.I2C_WaitAck) refers to stm32f10x_gpio.o(i.GPIO_ResetBits) for GPIO_ResetBits
    i2c.o(i.I2C_WaitAck) refers to stm32f10x_gpio.o(i.GPIO_SetBits) for GPIO_SetBits
    i2c.o(i.I2C_WaitAck) refers to stm32f10x_gpio.o(i.GPIO_ReadInputDataBit) for GPIO_ReadInputDataBit
    i2c.o(i.I2C_WriteByte) refers to i2c.o(i.I2C_Start) for I2C_Start
    i2c.o(i.I2C_WriteByte) refers to i2c.o(i.I2C_SendByte) for I2C_SendByte
    i2c.o(i.I2C_WriteByte) refers to i2c.o(i.I2C_WaitAck) for I2C_WaitAck
    i2c.o(i.I2C_WriteByte) refers to i2c.o(i.I2C_Stop) for I2C_Stop
    i2c.o(i.I2C_WriteByte) refers to i2c.o(i.I2C_Delay) for I2C_Delay
    i2c.o(i.I2C_WriteData) refers to i2c.o(i.I2C_Start) for I2C_Start
    i2c.o(i.I2C_WriteData) refers to i2c.o(i.I2C_SendByte) for I2C_SendByte
    i2c.o(i.I2C_WriteData) refers to i2c.o(i.I2C_WaitAck) for I2C_WaitAck
    i2c.o(i.I2C_WriteData) refers to i2c.o(i.I2C_Stop) for I2C_Stop
    lcdutils.o(i.LcdBufferClear) refers to lcdutils.o(.bss) for LcdBuffer
    lcdutils.o(i.LcdBufferPaint) refers to lcd.o(i.LcdSetPos) for LcdSetPos
    lcdutils.o(i.LcdBufferPaint) refers to lcd.o(i.LcdWriteDataBytes) for LcdWriteDataBytes
    lcdutils.o(i.LcdBufferPaint) refers to lcdutils.o(.bss) for LcdBuffer
    lcdutils.o(i.LcdCheckCharHz) refers to memcmp.o(.text) for memcmp
    lcdutils.o(i.LcdCheckCharHz) refers to lcdutils.o(.data) for LcdState
    lcdutils.o(i.LcdCheckCharHz) refers to lcdutils.o(.constdata) for hzIndex16_16
    lcdutils.o(i.LcdDrawLineH) refers to lcdutils.o(i.LcdDrawPoint) for LcdDrawPoint
    lcdutils.o(i.LcdDrawLineV) refers to lcdutils.o(i.LcdDrawPoint) for LcdDrawPoint
    lcdutils.o(i.LcdDrawOne) refers to lcdutils.o(i.LcdCheckCharHz) for LcdCheckCharHz
    lcdutils.o(i.LcdDrawOne) refers to lcdutils.o(i.LcdDrawPoint) for LcdDrawPoint
    lcdutils.o(i.LcdDrawOne) refers to lcdutils.o(.data) for LcdFont
    lcdutils.o(i.LcdDrawPoint) refers to lcdutils.o(.bss) for LcdBuffer
    lcdutils.o(i.LcdDrawString) refers to lcdutils.o(i.LcdDrawOne) for LcdDrawOne
    lcdutils.o(i.LcdDrawString) refers to lcdutils.o(.data) for LcdFont
    lcdutils.o(i.LcdDrawStringCenter) refers to lcdutils.o(i.LcdDrawStringHCenter) for LcdDrawStringHCenter
    lcdutils.o(i.LcdDrawStringCenter) refers to lcdutils.o(.data) for LcdFont
    lcdutils.o(i.LcdDrawStringHCenter) refers to lcdutils.o(i.LcdDrawString) for LcdDrawString
    lcdutils.o(i.LcdDrawStringHCenter) refers to lcdutils.o(.data) for LcdFont
    lcdutils.o(i.LcdGetBackColor) refers to lcdutils.o(.data) for LcdState
    lcdutils.o(i.LcdGetFont) refers to lcdutils.o(.data) for LcdState
    lcdutils.o(i.LcdGetFontState) refers to lcdutils.o(.data) for LcdState
    lcdutils.o(i.LcdGetFrontColor) refers to lcdutils.o(.data) for LcdState
    lcdutils.o(i.LcdSetFont) refers to lcdutils.o(.data) for LcdState
    lcdutils.o(i.LcdSetFontState) refers to lcdutils.o(.data) for LcdState
    lcdutils.o(i.LcdSetFrontBackColor) refers to lcdutils.o(.data) for LcdState
    lcdutils.o(i.LcdShowStr2Center) refers to lcdutils.o(i.LcdBufferClear) for LcdBufferClear
    lcdutils.o(i.LcdShowStr2Center) refers to lcdutils.o(i.LcdDrawStringHCenter) for LcdDrawStringHCenter
    lcdutils.o(i.LcdShowStr2Center) refers to lcdutils.o(i.LcdBufferPaint) for LcdBufferPaint
    lcdutils.o(i.LcdShowStr2Center) refers to lcdutils.o(.data) for LcdFont
    lcdutils.o(i.LcdShowStrCenter) refers to lcdutils.o(i.LcdBufferClear) for LcdBufferClear
    lcdutils.o(i.LcdShowStrCenter) refers to lcdutils.o(i.LcdDrawStringCenter) for LcdDrawStringCenter
    lcdutils.o(i.LcdShowStrCenter) refers to lcdutils.o(i.LcdBufferPaint) for LcdBufferPaint
    lcd.o(i.LcdClear) refers to lcd.o(i.LcdWriteCommand) for LcdWriteCommand
    lcd.o(i.LcdClear) refers to lcd.o(i.LcdWriteData) for LcdWriteData
    lcd.o(i.LcdDisplayOff) refers to lcd.o(i.LcdWriteCommand) for LcdWriteCommand
    lcd.o(i.LcdDisplayOn) refers to lcd.o(i.LcdWriteCommand) for LcdWriteCommand
    lcd.o(i.LcdInit) refers to lcd.o(i.LcdWriteCommand) for LcdWriteCommand
    lcd.o(i.LcdInit) refers to lcd.o(i.LcdClear) for LcdClear
    lcd.o(i.LcdInit) refers to lcdutils.o(i.LcdBufferClear) for LcdBufferClear
    lcd.o(i.LcdInit) refers to lcdutils.o(i.LcdSetFont) for LcdSetFont
    lcd.o(i.LcdInit) refers to lcdutils.o(i.LcdSetFontState) for LcdSetFontState
    lcd.o(i.LcdOn) refers to lcd.o(i.LcdWriteCommand) for LcdWriteCommand
    lcd.o(i.LcdOn) refers to lcd.o(i.LcdWriteData) for LcdWriteData
    lcd.o(i.LcdSetPos) refers to lcd.o(i.LcdWriteCommand) for LcdWriteCommand
    lcd.o(i.LcdWriteCommand) refers to i2c.o(i.I2C_WriteByte) for I2C_WriteByte
    lcd.o(i.LcdWriteData) refers to i2c.o(i.I2C_WriteByte) for I2C_WriteByte
    lcd.o(i.LcdWriteDataBytes) refers to i2c.o(i.I2C_WriteData) for I2C_WriteData
    led.o(i.LEDConfig) refers to stm32f10x_rcc.o(i.RCC_APB2PeriphClockCmd) for RCC_APB2PeriphClockCmd
    led.o(i.LEDConfig) refers to stm32f10x_gpio.o(i.GPIO_PinRemapConfig) for GPIO_PinRemapConfig
    led.o(i.LEDConfig) refers to stm32f10x_gpio.o(i.GPIO_Init) for GPIO_Init
    led.o(i.LEDConfig) refers to stm32f10x_gpio.o(i.GPIO_SetBits) for GPIO_SetBits
    package.o(i.Pack) refers to rt_memclr.o(.text) for __aeabi_memclr
    package.o(i.Pack) refers to aes.o(i.aes_encrypt) for aes_encrypt
    package.o(i.Pack) refers to crc16.o(i.GetCrc16Value) for GetCrc16Value
    package.o(i.Pack) refers to slip.o(i.Slip_Pack) for Slip_Pack
    package.o(i.Pack) refers to package.o(.bss) for AesCtx
    package.o(i.PackageKeyInit) refers to aes.o(i.aes_set_key) for aes_set_key
    package.o(i.PackageKeyInit) refers to package.o(.bss) for AesCtx
    package.o(i.Unpack) refers to slip.o(i.Slip_Unpack) for Slip_Unpack
    package.o(i.Unpack) refers to crc16.o(i.GetCrc16Value) for GetCrc16Value
    package.o(i.Unpack) refers to aes.o(i.aes_decrypt) for aes_decrypt
    package.o(i.Unpack) refers to package.o(.bss) for AesCtx
    slip.o(i.Slip_Pack) refers to rt_memclr.o(.text) for __aeabi_memclr
    ch374device.o(i.CH374DeviceInit) refers to ch374interface.o(i.Read374Byte) for Read374Byte
    ch374device.o(i.CH374DeviceInit) refers to ch374interface.o(i.Write374Byte) for Write374Byte
    ch374device.o(i.CH374DeviceInit) refers to delay.o(i.System72MDelay1ms) for System72MDelay1ms
    ch374device.o(i.CH374DeviceInit) refers to ch374devicehid.o(.constdata) for CustomHID_DeviceDescriptor
    ch374device.o(i.CH374DeviceInit) refers to ch374device.o(.bss) for Ch374Device
    ch374device.o(i.CH374DeviceInit) refers to ch374device.o(.constdata) for LangDescr
    ch374device.o(i.CH374DeviceInterrupt) refers to ch374interface.o(i.Read374Byte) for Read374Byte
    ch374device.o(i.CH374DeviceInterrupt) refers to ch374interface.o(i.Write374Byte) for Write374Byte
    ch374device.o(i.CH374DeviceInterrupt) refers to ch374devicehid.o(i.DeviceHidOutCallBack) for DeviceHidOutCallBack
    ch374device.o(i.CH374DeviceInterrupt) refers to ch374devicehid.o(i.DeviceHidSendFinishCallBack) for DeviceHidSendFinishCallBack
    ch374device.o(i.CH374DeviceInterrupt) refers to ch374interface.o(i.Read374Block) for Read374Block
    ch374device.o(i.CH374DeviceInterrupt) refers to ch374interface.o(i.Write374Block) for Write374Block
    ch374device.o(i.CH374DeviceInterrupt) refers to ch374device.o(.data) for CH374ErrFlag
    ch374device.o(i.CH374DeviceInterrupt) refers to ch374device.o(.bss) for Ch374Device
    ch374device.o(i.CH374DeviceInterrupt) refers to ch374devicehid.o(.constdata) for CustomHID_ReportDescriptor
    ch374devicehid.o(i.CH374InterruptCallBack) refers to ch374device.o(i.CH374DeviceInterrupt) for CH374DeviceInterrupt
    ch374devicehid.o(i.CH374InterruptCallBack) refers to stm32f10x_gpio.o(i.GPIO_ReadInputDataBit) for GPIO_ReadInputDataBit
    ch374devicehid.o(i.DeviceHidOutCallBack) refers to ch374interface.o(i.Read374Byte) for Read374Byte
    ch374devicehid.o(i.DeviceHidOutCallBack) refers to ch374interface.o(i.Read374Block) for Read374Block
    ch374devicehid.o(i.DeviceHidOutCallBack) refers to slip.o(i.SlipSimpleCheck) for SlipSimpleCheck
    ch374devicehid.o(i.DeviceHidOutCallBack) refers to os_sem.o(i.OSSemPost) for OSSemPost
    ch374devicehid.o(i.DeviceHidOutCallBack) refers to ch374devicehid.o(.bss) for HidData
    ch374devicehid.o(i.DeviceHidOutCallBack) refers to task.o(.data) for MsgSem
    ch374devicehid.o(i.DeviceHidSendData) refers to ch374interface.o(i.CH374WriteBlockZero) for CH374WriteBlockZero
    ch374devicehid.o(i.DeviceHidSendData) refers to ch374interface.o(i.Write374Block) for Write374Block
    ch374devicehid.o(i.DeviceHidSendData) refers to ch374interface.o(i.Write374Byte) for Write374Byte
    ch374devicehid.o(i.DeviceHidSendData) refers to ch374interface.o(i.Read374Byte) for Read374Byte
    ch374devicehid.o(i.DeviceHidSendData) refers to ch374devicehid.o(.data) for DeviceHidSendFinish
    ch374devicehid.o(i.DeviceHidSendFinishCallBack) refers to ch374devicehid.o(.data) for DeviceHidSendFinish
    ch374interface.o(i.CH374SpiConfig) refers to stm32f10x_rcc.o(i.RCC_APB2PeriphClockCmd) for RCC_APB2PeriphClockCmd
    ch374interface.o(i.CH374SpiConfig) refers to stm32f10x_rcc.o(i.RCC_APB1PeriphClockCmd) for RCC_APB1PeriphClockCmd
    ch374interface.o(i.CH374SpiConfig) refers to stm32f10x_gpio.o(i.GPIO_Init) for GPIO_Init
    ch374interface.o(i.CH374SpiConfig) refers to stm32f10x_gpio.o(i.GPIO_SetBits) for GPIO_SetBits
    ch374interface.o(i.CH374SpiConfig) refers to stm32f10x_spi.o(i.SPI_Init) for SPI_Init
    ch374interface.o(i.CH374SpiConfig) refers to stm32f10x_spi.o(i.SPI_Cmd) for SPI_Cmd
    ch374interface.o(i.CH374SpiSendByte) refers to stm32f10x_spi.o(i.SPI_I2S_GetFlagStatus) for SPI_I2S_GetFlagStatus
    ch374interface.o(i.CH374SpiSendByte) refers to stm32f10x_spi.o(i.SPI_I2S_SendData) for SPI_I2S_SendData
    ch374interface.o(i.CH374SpiSendByte) refers to stm32f10x_spi.o(i.SPI_I2S_ReceiveData) for SPI_I2S_ReceiveData
    ch374interface.o(i.CH374WriteBlockZero) refers to stm32f10x_gpio.o(i.GPIO_ResetBits) for GPIO_ResetBits
    ch374interface.o(i.CH374WriteBlockZero) refers to ch374interface.o(i.CH374SpiSendByte) for CH374SpiSendByte
    ch374interface.o(i.CH374WriteBlockZero) refers to stm32f10x_gpio.o(i.GPIO_SetBits) for GPIO_SetBits
    ch374interface.o(i.Ch374HardWareConfig) refers to stm32f10x_rcc.o(i.RCC_APB2PeriphClockCmd) for RCC_APB2PeriphClockCmd
    ch374interface.o(i.Ch374HardWareConfig) refers to stm32f10x_gpio.o(i.GPIO_Init) for GPIO_Init
    ch374interface.o(i.Ch374HardWareConfig) refers to stm32f10x_gpio.o(i.GPIO_EXTILineConfig) for GPIO_EXTILineConfig
    ch374interface.o(i.Ch374HardWareConfig) refers to stm32f10x_exti.o(i.EXTI_Init) for EXTI_Init
    ch374interface.o(i.Ch374HardWareConfig) refers to misc.o(i.NVIC_Init) for NVIC_Init
    ch374interface.o(i.Ch374HardWareConfig) refers to ch374interface.o(i.CH374SpiConfig) for CH374SpiConfig
    ch374interface.o(i.Ch374HardwareState) refers to ch374interface.o(i.Read374Byte) for Read374Byte
    ch374interface.o(i.Read374Block) refers to stm32f10x_gpio.o(i.GPIO_ResetBits) for GPIO_ResetBits
    ch374interface.o(i.Read374Block) refers to ch374interface.o(i.CH374SpiSendByte) for CH374SpiSendByte
    ch374interface.o(i.Read374Block) refers to stm32f10x_gpio.o(i.GPIO_SetBits) for GPIO_SetBits
    ch374interface.o(i.Read374Byte) refers to stm32f10x_gpio.o(i.GPIO_ResetBits) for GPIO_ResetBits
    ch374interface.o(i.Read374Byte) refers to ch374interface.o(i.CH374SpiSendByte) for CH374SpiSendByte
    ch374interface.o(i.Read374Byte) refers to stm32f10x_gpio.o(i.GPIO_SetBits) for GPIO_SetBits
    ch374interface.o(i.Write374Block) refers to stm32f10x_gpio.o(i.GPIO_ResetBits) for GPIO_ResetBits
    ch374interface.o(i.Write374Block) refers to ch374interface.o(i.CH374SpiSendByte) for CH374SpiSendByte
    ch374interface.o(i.Write374Block) refers to stm32f10x_gpio.o(i.GPIO_SetBits) for GPIO_SetBits
    ch374interface.o(i.Write374Byte) refers to stm32f10x_gpio.o(i.GPIO_ResetBits) for GPIO_ResetBits
    ch374interface.o(i.Write374Byte) refers to ch374interface.o(i.CH374SpiSendByte) for CH374SpiSendByte
    ch374interface.o(i.Write374Byte) refers to stm32f10x_gpio.o(i.GPIO_SetBits) for GPIO_SetBits
    stm32f10x_gpio.o(i.GPIO_AFIODeInit) refers to stm32f10x_rcc.o(i.RCC_APB2PeriphResetCmd) for RCC_APB2PeriphResetCmd
    stm32f10x_gpio.o(i.GPIO_DeInit) refers to stm32f10x_rcc.o(i.RCC_APB2PeriphResetCmd) for RCC_APB2PeriphResetCmd
    stm32f10x_rcc.o(i.RCC_GetClocksFreq) refers to stm32f10x_rcc.o(.data) for APBAHBPrescTable
    stm32f10x_rcc.o(i.RCC_WaitForHSEStartUp) refers to stm32f10x_rcc.o(i.RCC_GetFlagStatus) for RCC_GetFlagStatus
    stm32f10x_spi.o(i.I2S_Init) refers to stm32f10x_rcc.o(i.RCC_GetClocksFreq) for RCC_GetClocksFreq
    stm32f10x_spi.o(i.SPI_I2S_DeInit) refers to stm32f10x_rcc.o(i.RCC_APB2PeriphResetCmd) for RCC_APB2PeriphResetCmd
    stm32f10x_spi.o(i.SPI_I2S_DeInit) refers to stm32f10x_rcc.o(i.RCC_APB1PeriphResetCmd) for RCC_APB1PeriphResetCmd
    stm32f10x_adc.o(i.ADC_DeInit) refers to stm32f10x_rcc.o(i.RCC_APB2PeriphResetCmd) for RCC_APB2PeriphResetCmd
    stm32f10x_flash.o(i.FLASH_EnableWriteProtection) refers to stm32f10x_flash.o(i.FLASH_WaitForLastOperation) for FLASH_WaitForLastOperation
    stm32f10x_flash.o(i.FLASH_EraseAllBank1Pages) refers to stm32f10x_flash.o(i.FLASH_WaitForLastBank1Operation) for FLASH_WaitForLastBank1Operation
    stm32f10x_flash.o(i.FLASH_EraseAllPages) refers to stm32f10x_flash.o(i.FLASH_WaitForLastOperation) for FLASH_WaitForLastOperation
    stm32f10x_flash.o(i.FLASH_EraseOptionBytes) refers to stm32f10x_flash.o(i.FLASH_GetReadOutProtectionStatus) for FLASH_GetReadOutProtectionStatus
    stm32f10x_flash.o(i.FLASH_EraseOptionBytes) refers to stm32f10x_flash.o(i.FLASH_WaitForLastOperation) for FLASH_WaitForLastOperation
    stm32f10x_flash.o(i.FLASH_ErasePage) refers to stm32f10x_flash.o(i.FLASH_WaitForLastOperation) for FLASH_WaitForLastOperation
    stm32f10x_flash.o(i.FLASH_ProgramHalfWord) refers to stm32f10x_flash.o(i.FLASH_WaitForLastOperation) for FLASH_WaitForLastOperation
    stm32f10x_flash.o(i.FLASH_ProgramOptionByteData) refers to stm32f10x_flash.o(i.FLASH_WaitForLastOperation) for FLASH_WaitForLastOperation
    stm32f10x_flash.o(i.FLASH_ProgramWord) refers to stm32f10x_flash.o(i.FLASH_WaitForLastOperation) for FLASH_WaitForLastOperation
    stm32f10x_flash.o(i.FLASH_ReadOutProtection) refers to stm32f10x_flash.o(i.FLASH_WaitForLastOperation) for FLASH_WaitForLastOperation
    stm32f10x_flash.o(i.FLASH_UserOptionByteConfig) refers to stm32f10x_flash.o(i.FLASH_WaitForLastOperation) for FLASH_WaitForLastOperation
    stm32f10x_flash.o(i.FLASH_WaitForLastBank1Operation) refers to stm32f10x_flash.o(i.FLASH_GetBank1Status) for FLASH_GetBank1Status
    stm32f10x_flash.o(i.FLASH_WaitForLastOperation) refers to stm32f10x_flash.o(i.FLASH_GetBank1Status) for FLASH_GetBank1Status
    stm32f10x_tim.o(i.TIM_DeInit) refers to stm32f10x_rcc.o(i.RCC_APB2PeriphResetCmd) for RCC_APB2PeriphResetCmd
    stm32f10x_tim.o(i.TIM_DeInit) refers to stm32f10x_rcc.o(i.RCC_APB1PeriphResetCmd) for RCC_APB1PeriphResetCmd
    stm32f10x_tim.o(i.TIM_ETRClockMode1Config) refers to stm32f10x_tim.o(i.TIM_ETRConfig) for TIM_ETRConfig
    stm32f10x_tim.o(i.TIM_ETRClockMode2Config) refers to stm32f10x_tim.o(i.TIM_ETRConfig) for TIM_ETRConfig
    stm32f10x_tim.o(i.TIM_ICInit) refers to stm32f10x_tim.o(i.TI1_Config) for TI1_Config
    stm32f10x_tim.o(i.TIM_ICInit) refers to stm32f10x_tim.o(i.TIM_SetIC1Prescaler) for TIM_SetIC1Prescaler
    stm32f10x_tim.o(i.TIM_ICInit) refers to stm32f10x_tim.o(i.TI2_Config) for TI2_Config
    stm32f10x_tim.o(i.TIM_ICInit) refers to stm32f10x_tim.o(i.TIM_SetIC2Prescaler) for TIM_SetIC2Prescaler
    stm32f10x_tim.o(i.TIM_ICInit) refers to stm32f10x_tim.o(i.TI3_Config) for TI3_Config
    stm32f10x_tim.o(i.TIM_ICInit) refers to stm32f10x_tim.o(i.TIM_SetIC3Prescaler) for TIM_SetIC3Prescaler
    stm32f10x_tim.o(i.TIM_ICInit) refers to stm32f10x_tim.o(i.TI4_Config) for TI4_Config
    stm32f10x_tim.o(i.TIM_ICInit) refers to stm32f10x_tim.o(i.TIM_SetIC4Prescaler) for TIM_SetIC4Prescaler
    stm32f10x_tim.o(i.TIM_ITRxExternalClockConfig) refers to stm32f10x_tim.o(i.TIM_SelectInputTrigger) for TIM_SelectInputTrigger
    stm32f10x_tim.o(i.TIM_PWMIConfig) refers to stm32f10x_tim.o(i.TI1_Config) for TI1_Config
    stm32f10x_tim.o(i.TIM_PWMIConfig) refers to stm32f10x_tim.o(i.TIM_SetIC1Prescaler) for TIM_SetIC1Prescaler
    stm32f10x_tim.o(i.TIM_PWMIConfig) refers to stm32f10x_tim.o(i.TI2_Config) for TI2_Config
    stm32f10x_tim.o(i.TIM_PWMIConfig) refers to stm32f10x_tim.o(i.TIM_SetIC2Prescaler) for TIM_SetIC2Prescaler
    stm32f10x_tim.o(i.TIM_TIxExternalClockConfig) refers to stm32f10x_tim.o(i.TI2_Config) for TI2_Config
    stm32f10x_tim.o(i.TIM_TIxExternalClockConfig) refers to stm32f10x_tim.o(i.TI1_Config) for TI1_Config
    stm32f10x_tim.o(i.TIM_TIxExternalClockConfig) refers to stm32f10x_tim.o(i.TIM_SelectInputTrigger) for TIM_SelectInputTrigger
    stm32f10x_pwr.o(i.PWR_DeInit) refers to stm32f10x_rcc.o(i.RCC_APB1PeriphResetCmd) for RCC_APB1PeriphResetCmd
    stm32f10x_rtc.o(i.RTC_SetAlarm) refers to stm32f10x_rtc.o(i.RTC_EnterConfigMode) for RTC_EnterConfigMode
    stm32f10x_rtc.o(i.RTC_SetAlarm) refers to stm32f10x_rtc.o(i.RTC_ExitConfigMode) for RTC_ExitConfigMode
    stm32f10x_rtc.o(i.RTC_SetCounter) refers to stm32f10x_rtc.o(i.RTC_EnterConfigMode) for RTC_EnterConfigMode
    stm32f10x_rtc.o(i.RTC_SetCounter) refers to stm32f10x_rtc.o(i.RTC_ExitConfigMode) for RTC_ExitConfigMode
    stm32f10x_rtc.o(i.RTC_SetPrescaler) refers to stm32f10x_rtc.o(i.RTC_EnterConfigMode) for RTC_EnterConfigMode
    stm32f10x_rtc.o(i.RTC_SetPrescaler) refers to stm32f10x_rtc.o(i.RTC_ExitConfigMode) for RTC_ExitConfigMode
    os_cpu_c.o(i.OSInitHookBegin) refers to os_cpu_c.o(.data) for OSTmrCtr
    os_cpu_c.o(i.OSTimeTickHook) refers to os_tmr.o(i.OSTmrSignal) for OSTmrSignal
    os_cpu_c.o(i.OSTimeTickHook) refers to os_cpu_c.o(.data) for OSTmrCtr
    os_cpu_a.o(.text) refers to os_core.o(.data) for OSRunning
    os_cpu_a.o(.text) refers to os_cpu_c.o(i.OSTaskSwHook) for OSTaskSwHook
    os_core.o(i.OSEventNameGet) refers to os_cpu_a.o(.text) for OS_CPU_SR_Save
    os_core.o(i.OSEventNameGet) refers to os_core.o(i.OS_StrLen) for OS_StrLen
    os_core.o(i.OSEventNameGet) refers to os_core.o(.data) for OSIntNesting
    os_core.o(i.OSEventNameSet) refers to os_cpu_a.o(.text) for OS_CPU_SR_Save
    os_core.o(i.OSEventNameSet) refers to os_core.o(.data) for OSIntNesting
    os_core.o(i.OSEventPendMulti) refers to os_cpu_a.o(.text) for OS_CPU_SR_Save
    os_core.o(i.OSEventPendMulti) refers to os_core.o(i.OS_EventTaskWaitMulti) for OS_EventTaskWaitMulti
    os_core.o(i.OSEventPendMulti) refers to os_core.o(i.OS_Sched) for OS_Sched
    os_core.o(i.OSEventPendMulti) refers to os_core.o(i.OS_EventTaskRemoveMulti) for OS_EventTaskRemoveMulti
    os_core.o(i.OSEventPendMulti) refers to os_core.o(.data) for OSIntNesting
    os_core.o(i.OSInit) refers to os_cpu_c.o(i.OSInitHookBegin) for OSInitHookBegin
    os_core.o(i.OSInit) refers to os_core.o(i.OS_InitMisc) for OS_InitMisc
    os_core.o(i.OSInit) refers to os_core.o(i.OS_InitRdyList) for OS_InitRdyList
    os_core.o(i.OSInit) refers to os_core.o(i.OS_InitTCBList) for OS_InitTCBList
    os_core.o(i.OSInit) refers to os_core.o(i.OS_InitEventList) for OS_InitEventList
    os_core.o(i.OSInit) refers to os_mem.o(i.OS_MemInit) for OS_MemInit
    os_core.o(i.OSInit) refers to os_q.o(i.OS_QInit) for OS_QInit
    os_core.o(i.OSInit) refers to os_core.o(i.OS_InitTaskIdle) for OS_InitTaskIdle
    os_core.o(i.OSInit) refers to os_core.o(i.OS_InitTaskStat) for OS_InitTaskStat
    os_core.o(i.OSInit) refers to os_tmr.o(i.OSTmr_Init) for OSTmr_Init
    os_core.o(i.OSInit) refers to os_cpu_c.o(i.OSInitHookEnd) for OSInitHookEnd
    os_core.o(i.OSIntEnter) refers to os_core.o(.data) for OSRunning
    os_core.o(i.OSIntExit) refers to os_cpu_a.o(.text) for OS_CPU_SR_Save
    os_core.o(i.OSIntExit) refers to os_core.o(i.OS_SchedNew) for OS_SchedNew
    os_core.o(i.OSIntExit) refers to os_core.o(.data) for OSRunning
    os_core.o(i.OSIntExit) refers to os_core.o(.bss) for OSTCBPrioTbl
    os_core.o(i.OSSchedLock) refers to os_cpu_a.o(.text) for OS_CPU_SR_Save
    os_core.o(i.OSSchedLock) refers to os_core.o(.data) for OSRunning
    os_core.o(i.OSSchedUnlock) refers to os_cpu_a.o(.text) for OS_CPU_SR_Save
    os_core.o(i.OSSchedUnlock) refers to os_core.o(i.OS_Sched) for OS_Sched
    os_core.o(i.OSSchedUnlock) refers to os_core.o(.data) for OSRunning
    os_core.o(i.OSStart) refers to os_core.o(i.OS_SchedNew) for OS_SchedNew
    os_core.o(i.OSStart) refers to os_cpu_a.o(.text) for OSStartHighRdy
    os_core.o(i.OSStart) refers to os_core.o(.data) for OSRunning
    os_core.o(i.OSStart) refers to os_core.o(.bss) for OSTCBPrioTbl
    os_core.o(i.OSStatInit) refers to os_time.o(i.OSTimeDly) for OSTimeDly
    os_core.o(i.OSStatInit) refers to os_cpu_a.o(.text) for OS_CPU_SR_Save
    os_core.o(i.OSStatInit) refers to os_core.o(.data) for OSIdleCtr
    os_core.o(i.OSTimeTick) refers to os_cpu_c.o(i.OSTimeTickHook) for OSTimeTickHook
    os_core.o(i.OSTimeTick) refers to os_cpu_a.o(.text) for OS_CPU_SR_Save
    os_core.o(i.OSTimeTick) refers to os_core.o(.data) for OSTime
    os_core.o(i.OS_EventTaskRdy) refers to os_core.o(i.OS_EventTaskRemove) for OS_EventTaskRemove
    os_core.o(i.OS_EventTaskRdy) refers to os_core.o(i.OS_EventTaskRemoveMulti) for OS_EventTaskRemoveMulti
    os_core.o(i.OS_EventTaskRdy) refers to os_core.o(.constdata) for OSUnMapTbl
    os_core.o(i.OS_EventTaskRdy) refers to os_core.o(.bss) for OSTCBPrioTbl
    os_core.o(i.OS_EventTaskRdy) refers to os_core.o(.data) for OSRdyGrp
    os_core.o(i.OS_EventTaskWait) refers to os_core.o(.data) for OSTCBCur
    os_core.o(i.OS_EventTaskWaitMulti) refers to os_core.o(.data) for OSTCBCur
    os_core.o(i.OS_InitEventList) refers to os_core.o(i.OS_MemClr) for OS_MemClr
    os_core.o(i.OS_InitEventList) refers to os_core.o(.bss) for OSEventTbl
    os_core.o(i.OS_InitEventList) refers to os_core.o(.data) for OSEventFreeList
    os_core.o(i.OS_InitMisc) refers to os_core.o(.data) for OSTime
    os_core.o(i.OS_InitRdyList) refers to os_core.o(.data) for OSRdyGrp
    os_core.o(i.OS_InitTCBList) refers to os_core.o(i.OS_MemClr) for OS_MemClr
    os_core.o(i.OS_InitTCBList) refers to os_core.o(.bss) for OSTCBTbl
    os_core.o(i.OS_InitTCBList) refers to os_core.o(.data) for OSTCBList
    os_core.o(i.OS_InitTaskIdle) refers to os_task.o(i.OSTaskCreateExt) for OSTaskCreateExt
    os_core.o(i.OS_InitTaskIdle) refers to os_task.o(i.OSTaskNameSet) for OSTaskNameSet
    os_core.o(i.OS_InitTaskIdle) refers to os_core.o(.bss) for OSTaskIdleStk
    os_core.o(i.OS_InitTaskIdle) refers to os_core.o(i.OS_TaskIdle) for OS_TaskIdle
    os_core.o(i.OS_InitTaskStat) refers to os_task.o(i.OSTaskCreateExt) for OSTaskCreateExt
    os_core.o(i.OS_InitTaskStat) refers to os_task.o(i.OSTaskNameSet) for OSTaskNameSet
    os_core.o(i.OS_InitTaskStat) refers to os_core.o(.bss) for OSTaskStatStk
    os_core.o(i.OS_InitTaskStat) refers to os_core.o(i.OS_TaskStat) for OS_TaskStat
    os_core.o(i.OS_Sched) refers to os_cpu_a.o(.text) for OS_CPU_SR_Save
    os_core.o(i.OS_Sched) refers to os_core.o(i.OS_SchedNew) for OS_SchedNew
    os_core.o(i.OS_Sched) refers to os_core.o(.data) for OSIntNesting
    os_core.o(i.OS_Sched) refers to os_core.o(.bss) for OSTCBPrioTbl
    os_core.o(i.OS_SchedNew) refers to os_core.o(.constdata) for OSUnMapTbl
    os_core.o(i.OS_SchedNew) refers to os_core.o(.data) for OSRdyGrp
    os_core.o(i.OS_TCBInit) refers to os_cpu_a.o(.text) for OS_CPU_SR_Save
    os_core.o(i.OS_TCBInit) refers to os_cpu_c.o(i.OSTCBInitHook) for OSTCBInitHook
    os_core.o(i.OS_TCBInit) refers to os_cpu_c.o(i.OSTaskCreateHook) for OSTaskCreateHook
    os_core.o(i.OS_TCBInit) refers to os_core.o(.data) for OSTCBFreeList
    os_core.o(i.OS_TCBInit) refers to os_core.o(.bss) for OSTCBPrioTbl
    os_core.o(i.OS_TaskIdle) refers to os_cpu_a.o(.text) for OS_CPU_SR_Save
    os_core.o(i.OS_TaskIdle) refers to os_cpu_c.o(i.OSTaskIdleHook) for OSTaskIdleHook
    os_core.o(i.OS_TaskIdle) refers to os_core.o(.data) for OSIdleCtr
    os_core.o(i.OS_TaskStat) refers to os_time.o(i.OSTimeDly) for OSTimeDly
    os_core.o(i.OS_TaskStat) refers to os_task.o(i.OSTaskSuspend) for OSTaskSuspend
    os_core.o(i.OS_TaskStat) refers to os_cpu_a.o(.text) for OS_CPU_SR_Save
    os_core.o(i.OS_TaskStat) refers to os_cpu_c.o(i.OSTaskStatHook) for OSTaskStatHook
    os_core.o(i.OS_TaskStat) refers to os_core.o(i.OS_TaskStatStkChk) for OS_TaskStatStkChk
    os_core.o(i.OS_TaskStat) refers to os_core.o(.data) for OSStatRdy
    os_core.o(i.OS_TaskStatStkChk) refers to os_task.o(i.OSTaskStkChk) for OSTaskStkChk
    os_core.o(i.OS_TaskStatStkChk) refers to os_core.o(.bss) for OSTCBPrioTbl
    os_mbox.o(i.OSMboxAccept) refers to os_cpu_a.o(.text) for OS_CPU_SR_Save
    os_mbox.o(i.OSMboxCreate) refers to os_cpu_a.o(.text) for OS_CPU_SR_Save
    os_mbox.o(i.OSMboxCreate) refers to os_core.o(i.OS_EventWaitListInit) for OS_EventWaitListInit
    os_mbox.o(i.OSMboxCreate) refers to os_core.o(.data) for OSIntNesting
    os_mbox.o(i.OSMboxDel) refers to os_cpu_a.o(.text) for OS_CPU_SR_Save
    os_mbox.o(i.OSMboxDel) refers to os_core.o(i.OS_EventTaskRdy) for OS_EventTaskRdy
    os_mbox.o(i.OSMboxDel) refers to os_core.o(i.OS_Sched) for OS_Sched
    os_mbox.o(i.OSMboxDel) refers to os_core.o(.data) for OSIntNesting
    os_mbox.o(i.OSMboxPend) refers to os_cpu_a.o(.text) for OS_CPU_SR_Save
    os_mbox.o(i.OSMboxPend) refers to os_core.o(i.OS_EventTaskWait) for OS_EventTaskWait
    os_mbox.o(i.OSMboxPend) refers to os_core.o(i.OS_Sched) for OS_Sched
    os_mbox.o(i.OSMboxPend) refers to os_core.o(i.OS_EventTaskRemove) for OS_EventTaskRemove
    os_mbox.o(i.OSMboxPend) refers to os_core.o(.data) for OSIntNesting
    os_mbox.o(i.OSMboxPendAbort) refers to os_cpu_a.o(.text) for OS_CPU_SR_Save
    os_mbox.o(i.OSMboxPendAbort) refers to os_core.o(i.OS_EventTaskRdy) for OS_EventTaskRdy
    os_mbox.o(i.OSMboxPendAbort) refers to os_core.o(i.OS_Sched) for OS_Sched
    os_mbox.o(i.OSMboxPost) refers to os_cpu_a.o(.text) for OS_CPU_SR_Save
    os_mbox.o(i.OSMboxPost) refers to os_core.o(i.OS_EventTaskRdy) for OS_EventTaskRdy
    os_mbox.o(i.OSMboxPost) refers to os_core.o(i.OS_Sched) for OS_Sched
    os_mbox.o(i.OSMboxPostOpt) refers to os_cpu_a.o(.text) for OS_CPU_SR_Save
    os_mbox.o(i.OSMboxPostOpt) refers to os_core.o(i.OS_EventTaskRdy) for OS_EventTaskRdy
    os_mbox.o(i.OSMboxPostOpt) refers to os_core.o(i.OS_Sched) for OS_Sched
    os_mbox.o(i.OSMboxQuery) refers to os_cpu_a.o(.text) for OS_CPU_SR_Save
    os_mem.o(i.OSMemCreate) refers to os_cpu_a.o(.text) for OS_CPU_SR_Save
    os_mem.o(i.OSMemCreate) refers to os_core.o(.data) for OSMemFreeList
    os_mem.o(i.OSMemGet) refers to os_cpu_a.o(.text) for OS_CPU_SR_Save
    os_mem.o(i.OSMemNameGet) refers to os_cpu_a.o(.text) for OS_CPU_SR_Save
    os_mem.o(i.OSMemNameGet) refers to os_core.o(i.OS_StrLen) for OS_StrLen
    os_mem.o(i.OSMemNameGet) refers to os_core.o(.data) for OSIntNesting
    os_mem.o(i.OSMemNameSet) refers to os_cpu_a.o(.text) for OS_CPU_SR_Save
    os_mem.o(i.OSMemNameSet) refers to os_core.o(.data) for OSIntNesting
    os_mem.o(i.OSMemPut) refers to os_cpu_a.o(.text) for OS_CPU_SR_Save
    os_mem.o(i.OSMemQuery) refers to os_cpu_a.o(.text) for OS_CPU_SR_Save
    os_mem.o(i.OS_MemInit) refers to os_core.o(i.OS_MemClr) for OS_MemClr
    os_mem.o(i.OS_MemInit) refers to os_core.o(.bss) for OSMemTbl
    os_mem.o(i.OS_MemInit) refers to os_core.o(.data) for OSMemFreeList
    os_mutex.o(i.OSMutexAccept) refers to os_cpu_a.o(.text) for OS_CPU_SR_Save
    os_mutex.o(i.OSMutexAccept) refers to os_core.o(.data) for OSIntNesting
    os_mutex.o(i.OSMutexCreate) refers to os_cpu_a.o(.text) for OS_CPU_SR_Save
    os_mutex.o(i.OSMutexCreate) refers to os_core.o(i.OS_EventWaitListInit) for OS_EventWaitListInit
    os_mutex.o(i.OSMutexCreate) refers to os_core.o(.data) for OSIntNesting
    os_mutex.o(i.OSMutexCreate) refers to os_core.o(.bss) for OSTCBPrioTbl
    os_mutex.o(i.OSMutexDel) refers to os_cpu_a.o(.text) for OS_CPU_SR_Save
    os_mutex.o(i.OSMutexDel) refers to os_mutex.o(i.OSMutex_RdyAtPrio) for OSMutex_RdyAtPrio
    os_mutex.o(i.OSMutexDel) refers to os_core.o(i.OS_EventTaskRdy) for OS_EventTaskRdy
    os_mutex.o(i.OSMutexDel) refers to os_core.o(i.OS_Sched) for OS_Sched
    os_mutex.o(i.OSMutexDel) refers to os_core.o(.data) for OSIntNesting
    os_mutex.o(i.OSMutexDel) refers to os_core.o(.bss) for OSTCBPrioTbl
    os_mutex.o(i.OSMutexPend) refers to os_cpu_a.o(.text) for OS_CPU_SR_Save
    os_mutex.o(i.OSMutexPend) refers to os_core.o(i.OS_EventTaskWait) for OS_EventTaskWait
    os_mutex.o(i.OSMutexPend) refers to os_core.o(i.OS_Sched) for OS_Sched
    os_mutex.o(i.OSMutexPend) refers to os_core.o(i.OS_EventTaskRemove) for OS_EventTaskRemove
    os_mutex.o(i.OSMutexPend) refers to os_core.o(.data) for OSIntNesting
    os_mutex.o(i.OSMutexPend) refers to os_core.o(.bss) for OSTCBPrioTbl
    os_mutex.o(i.OSMutexPost) refers to os_cpu_a.o(.text) for OS_CPU_SR_Save
    os_mutex.o(i.OSMutexPost) refers to os_mutex.o(i.OSMutex_RdyAtPrio) for OSMutex_RdyAtPrio
    os_mutex.o(i.OSMutexPost) refers to os_core.o(i.OS_EventTaskRdy) for OS_EventTaskRdy
    os_mutex.o(i.OSMutexPost) refers to os_core.o(i.OS_Sched) for OS_Sched
    os_mutex.o(i.OSMutexPost) refers to os_core.o(.data) for OSIntNesting
    os_mutex.o(i.OSMutexPost) refers to os_core.o(.bss) for OSTCBPrioTbl
    os_mutex.o(i.OSMutexQuery) refers to os_cpu_a.o(.text) for OS_CPU_SR_Save
    os_mutex.o(i.OSMutexQuery) refers to os_core.o(.data) for OSIntNesting
    os_mutex.o(i.OSMutex_RdyAtPrio) refers to os_core.o(.data) for OSRdyTbl
    os_mutex.o(i.OSMutex_RdyAtPrio) refers to os_core.o(.bss) for OSTCBPrioTbl
    os_q.o(i.OSQAccept) refers to os_cpu_a.o(.text) for OS_CPU_SR_Save
    os_q.o(i.OSQCreate) refers to os_cpu_a.o(.text) for OS_CPU_SR_Save
    os_q.o(i.OSQCreate) refers to os_core.o(i.OS_EventWaitListInit) for OS_EventWaitListInit
    os_q.o(i.OSQCreate) refers to os_core.o(.data) for OSIntNesting
    os_q.o(i.OSQDel) refers to os_cpu_a.o(.text) for OS_CPU_SR_Save
    os_q.o(i.OSQDel) refers to os_core.o(i.OS_EventTaskRdy) for OS_EventTaskRdy
    os_q.o(i.OSQDel) refers to os_core.o(i.OS_Sched) for OS_Sched
    os_q.o(i.OSQDel) refers to os_core.o(.data) for OSIntNesting
    os_q.o(i.OSQFlush) refers to os_cpu_a.o(.text) for OS_CPU_SR_Save
    os_q.o(i.OSQPend) refers to os_cpu_a.o(.text) for OS_CPU_SR_Save
    os_q.o(i.OSQPend) refers to os_core.o(i.OS_EventTaskWait) for OS_EventTaskWait
    os_q.o(i.OSQPend) refers to os_core.o(i.OS_Sched) for OS_Sched
    os_q.o(i.OSQPend) refers to os_core.o(i.OS_EventTaskRemove) for OS_EventTaskRemove
    os_q.o(i.OSQPend) refers to os_core.o(.data) for OSIntNesting
    os_q.o(i.OSQPendAbort) refers to os_cpu_a.o(.text) for OS_CPU_SR_Save
    os_q.o(i.OSQPendAbort) refers to os_core.o(i.OS_EventTaskRdy) for OS_EventTaskRdy
    os_q.o(i.OSQPendAbort) refers to os_core.o(i.OS_Sched) for OS_Sched
    os_q.o(i.OSQPost) refers to os_cpu_a.o(.text) for OS_CPU_SR_Save
    os_q.o(i.OSQPost) refers to os_core.o(i.OS_EventTaskRdy) for OS_EventTaskRdy
    os_q.o(i.OSQPost) refers to os_core.o(i.OS_Sched) for OS_Sched
    os_q.o(i.OSQPostFront) refers to os_cpu_a.o(.text) for OS_CPU_SR_Save
    os_q.o(i.OSQPostFront) refers to os_core.o(i.OS_EventTaskRdy) for OS_EventTaskRdy
    os_q.o(i.OSQPostFront) refers to os_core.o(i.OS_Sched) for OS_Sched
    os_q.o(i.OSQPostOpt) refers to os_cpu_a.o(.text) for OS_CPU_SR_Save
    os_q.o(i.OSQPostOpt) refers to os_core.o(i.OS_EventTaskRdy) for OS_EventTaskRdy
    os_q.o(i.OSQPostOpt) refers to os_core.o(i.OS_Sched) for OS_Sched
    os_q.o(i.OSQQuery) refers to os_cpu_a.o(.text) for OS_CPU_SR_Save
    os_q.o(i.OS_QInit) refers to os_core.o(i.OS_MemClr) for OS_MemClr
    os_q.o(i.OS_QInit) refers to os_core.o(.bss) for OSQTbl
    os_q.o(i.OS_QInit) refers to os_core.o(.data) for OSQFreeList
    os_sem.o(i.OSSemAccept) refers to os_cpu_a.o(.text) for OS_CPU_SR_Save
    os_sem.o(i.OSSemCreate) refers to os_cpu_a.o(.text) for OS_CPU_SR_Save
    os_sem.o(i.OSSemCreate) refers to os_core.o(i.OS_EventWaitListInit) for OS_EventWaitListInit
    os_sem.o(i.OSSemCreate) refers to os_core.o(.data) for OSIntNesting
    os_sem.o(i.OSSemDel) refers to os_cpu_a.o(.text) for OS_CPU_SR_Save
    os_sem.o(i.OSSemDel) refers to os_core.o(i.OS_EventTaskRdy) for OS_EventTaskRdy
    os_sem.o(i.OSSemDel) refers to os_core.o(i.OS_Sched) for OS_Sched
    os_sem.o(i.OSSemDel) refers to os_core.o(.data) for OSIntNesting
    os_sem.o(i.OSSemPend) refers to os_cpu_a.o(.text) for OS_CPU_SR_Save
    os_sem.o(i.OSSemPend) refers to os_core.o(i.OS_EventTaskWait) for OS_EventTaskWait
    os_sem.o(i.OSSemPend) refers to os_core.o(i.OS_Sched) for OS_Sched
    os_sem.o(i.OSSemPend) refers to os_core.o(i.OS_EventTaskRemove) for OS_EventTaskRemove
    os_sem.o(i.OSSemPend) refers to os_core.o(.data) for OSIntNesting
    os_sem.o(i.OSSemPendAbort) refers to os_cpu_a.o(.text) for OS_CPU_SR_Save
    os_sem.o(i.OSSemPendAbort) refers to os_core.o(i.OS_EventTaskRdy) for OS_EventTaskRdy
    os_sem.o(i.OSSemPendAbort) refers to os_core.o(i.OS_Sched) for OS_Sched
    os_sem.o(i.OSSemPost) refers to os_cpu_a.o(.text) for OS_CPU_SR_Save
    os_sem.o(i.OSSemPost) refers to os_core.o(i.OS_EventTaskRdy) for OS_EventTaskRdy
    os_sem.o(i.OSSemPost) refers to os_core.o(i.OS_Sched) for OS_Sched
    os_sem.o(i.OSSemQuery) refers to os_cpu_a.o(.text) for OS_CPU_SR_Save
    os_sem.o(i.OSSemSet) refers to os_cpu_a.o(.text) for OS_CPU_SR_Save
    os_task.o(i.OSTaskChangePrio) refers to os_cpu_a.o(.text) for OS_CPU_SR_Save
    os_task.o(i.OSTaskChangePrio) refers to os_core.o(i.OS_Sched) for OS_Sched
    os_task.o(i.OSTaskChangePrio) refers to os_core.o(.bss) for OSTCBPrioTbl
    os_task.o(i.OSTaskChangePrio) refers to os_core.o(.data) for OSTCBCur
    os_task.o(i.OSTaskCreate) refers to os_cpu_a.o(.text) for OS_CPU_SR_Save
    os_task.o(i.OSTaskCreate) refers to os_cpu_c.o(i.OSTaskStkInit) for OSTaskStkInit
    os_task.o(i.OSTaskCreate) refers to os_core.o(i.OS_TCBInit) for OS_TCBInit
    os_task.o(i.OSTaskCreate) refers to os_core.o(i.OS_Sched) for OS_Sched
    os_task.o(i.OSTaskCreate) refers to os_core.o(.data) for OSIntNesting
    os_task.o(i.OSTaskCreate) refers to os_core.o(.bss) for OSTCBPrioTbl
    os_task.o(i.OSTaskCreateExt) refers to os_cpu_a.o(.text) for OS_CPU_SR_Save
    os_task.o(i.OSTaskCreateExt) refers to os_task.o(i.OS_TaskStkClr) for OS_TaskStkClr
    os_task.o(i.OSTaskCreateExt) refers to os_cpu_c.o(i.OSTaskStkInit) for OSTaskStkInit
    os_task.o(i.OSTaskCreateExt) refers to os_core.o(i.OS_TCBInit) for OS_TCBInit
    os_task.o(i.OSTaskCreateExt) refers to os_core.o(i.OS_Sched) for OS_Sched
    os_task.o(i.OSTaskCreateExt) refers to os_core.o(.data) for OSIntNesting
    os_task.o(i.OSTaskCreateExt) refers to os_core.o(.bss) for OSTCBPrioTbl
    os_task.o(i.OSTaskDel) refers to os_cpu_a.o(.text) for OS_CPU_SR_Save
    os_task.o(i.OSTaskDel) refers to os_core.o(i.OS_EventTaskRemove) for OS_EventTaskRemove
    os_task.o(i.OSTaskDel) refers to os_core.o(i.OS_EventTaskRemoveMulti) for OS_EventTaskRemoveMulti
    os_task.o(i.OSTaskDel) refers to os_core.o(i.OS_Dummy) for OS_Dummy
    os_task.o(i.OSTaskDel) refers to os_cpu_c.o(i.OSTaskDelHook) for OSTaskDelHook
    os_task.o(i.OSTaskDel) refers to os_core.o(i.OS_Sched) for OS_Sched
    os_task.o(i.OSTaskDel) refers to os_core.o(.data) for OSIntNesting
    os_task.o(i.OSTaskDel) refers to os_core.o(.bss) for OSTCBPrioTbl
    os_task.o(i.OSTaskDelReq) refers to os_cpu_a.o(.text) for OS_CPU_SR_Save
    os_task.o(i.OSTaskDelReq) refers to os_core.o(.data) for OSTCBCur
    os_task.o(i.OSTaskDelReq) refers to os_core.o(.bss) for OSTCBPrioTbl
    os_task.o(i.OSTaskNameGet) refers to os_cpu_a.o(.text) for OS_CPU_SR_Save
    os_task.o(i.OSTaskNameGet) refers to os_core.o(i.OS_StrLen) for OS_StrLen
    os_task.o(i.OSTaskNameGet) refers to os_core.o(.data) for OSIntNesting
    os_task.o(i.OSTaskNameGet) refers to os_core.o(.bss) for OSTCBPrioTbl
    os_task.o(i.OSTaskNameSet) refers to os_cpu_a.o(.text) for OS_CPU_SR_Save
    os_task.o(i.OSTaskNameSet) refers to os_core.o(.data) for OSIntNesting
    os_task.o(i.OSTaskNameSet) refers to os_core.o(.bss) for OSTCBPrioTbl
    os_task.o(i.OSTaskQuery) refers to os_cpu_a.o(.text) for OS_CPU_SR_Save
    os_task.o(i.OSTaskQuery) refers to os_core.o(i.OS_MemCopy) for OS_MemCopy
    os_task.o(i.OSTaskQuery) refers to os_core.o(.data) for OSTCBCur
    os_task.o(i.OSTaskQuery) refers to os_core.o(.bss) for OSTCBPrioTbl
    os_task.o(i.OSTaskRegGet) refers to os_cpu_a.o(.text) for OS_CPU_SR_Save
    os_task.o(i.OSTaskRegGet) refers to os_core.o(.data) for OSTCBCur
    os_task.o(i.OSTaskRegGet) refers to os_core.o(.bss) for OSTCBPrioTbl
    os_task.o(i.OSTaskRegSet) refers to os_cpu_a.o(.text) for OS_CPU_SR_Save
    os_task.o(i.OSTaskRegSet) refers to os_core.o(.data) for OSTCBCur
    os_task.o(i.OSTaskRegSet) refers to os_core.o(.bss) for OSTCBPrioTbl
    os_task.o(i.OSTaskResume) refers to os_cpu_a.o(.text) for OS_CPU_SR_Save
    os_task.o(i.OSTaskResume) refers to os_core.o(i.OS_Sched) for OS_Sched
    os_task.o(i.OSTaskResume) refers to os_core.o(.bss) for OSTCBPrioTbl
    os_task.o(i.OSTaskResume) refers to os_core.o(.data) for OSRdyGrp
    os_task.o(i.OSTaskStkChk) refers to os_cpu_a.o(.text) for OS_CPU_SR_Save
    os_task.o(i.OSTaskStkChk) refers to os_core.o(.data) for OSTCBCur
    os_task.o(i.OSTaskStkChk) refers to os_core.o(.bss) for OSTCBPrioTbl
    os_task.o(i.OSTaskSuspend) refers to os_cpu_a.o(.text) for OS_CPU_SR_Save
    os_task.o(i.OSTaskSuspend) refers to os_core.o(i.OS_Sched) for OS_Sched
    os_task.o(i.OSTaskSuspend) refers to os_core.o(.data) for OSTCBCur
    os_task.o(i.OSTaskSuspend) refers to os_core.o(.bss) for OSTCBPrioTbl
    os_task.o(i.OS_TaskReturn) refers to os_cpu_c.o(i.OSTaskReturnHook) for OSTaskReturnHook
    os_task.o(i.OS_TaskReturn) refers to os_task.o(i.OSTaskDel) for OSTaskDel
    os_task.o(i.OS_TaskReturn) refers to os_core.o(.data) for OSTCBCur
    os_time.o(i.OSTimeDly) refers to os_cpu_a.o(.text) for OS_CPU_SR_Save
    os_time.o(i.OSTimeDly) refers to os_core.o(i.OS_Sched) for OS_Sched
    os_time.o(i.OSTimeDly) refers to os_core.o(.data) for OSIntNesting
    os_time.o(i.OSTimeDlyHMSM) refers to os_time.o(i.OSTimeDly) for OSTimeDly
    os_time.o(i.OSTimeDlyHMSM) refers to os_core.o(.data) for OSIntNesting
    os_time.o(i.OSTimeDlyResume) refers to os_cpu_a.o(.text) for OS_CPU_SR_Save
    os_time.o(i.OSTimeDlyResume) refers to os_core.o(i.OS_Sched) for OS_Sched
    os_time.o(i.OSTimeDlyResume) refers to os_core.o(.bss) for OSTCBPrioTbl
    os_time.o(i.OSTimeDlyResume) refers to os_core.o(.data) for OSRdyGrp
    os_time.o(i.OSTimeGet) refers to os_cpu_a.o(.text) for OS_CPU_SR_Save
    os_time.o(i.OSTimeGet) refers to os_core.o(.data) for OSTime
    os_time.o(i.OSTimeSet) refers to os_cpu_a.o(.text) for OS_CPU_SR_Save
    os_time.o(i.OSTimeSet) refers to os_core.o(.data) for OSTime
    os_tmr.o(i.OSTmrCreate) refers to os_core.o(i.OSSchedLock) for OSSchedLock
    os_tmr.o(i.OSTmrCreate) refers to os_tmr.o(i.OSTmr_Alloc) for OSTmr_Alloc
    os_tmr.o(i.OSTmrCreate) refers to os_core.o(i.OSSchedUnlock) for OSSchedUnlock
    os_tmr.o(i.OSTmrCreate) refers to os_core.o(.data) for OSIntNesting
    os_tmr.o(i.OSTmrDel) refers to os_core.o(i.OSSchedLock) for OSSchedLock
    os_tmr.o(i.OSTmrDel) refers to os_tmr.o(i.OSTmr_Unlink) for OSTmr_Unlink
    os_tmr.o(i.OSTmrDel) refers to os_tmr.o(i.OSTmr_Free) for OSTmr_Free
    os_tmr.o(i.OSTmrDel) refers to os_core.o(i.OSSchedUnlock) for OSSchedUnlock
    os_tmr.o(i.OSTmrDel) refers to os_core.o(.data) for OSIntNesting
    os_tmr.o(i.OSTmrNameGet) refers to os_core.o(i.OSSchedLock) for OSSchedLock
    os_tmr.o(i.OSTmrNameGet) refers to os_core.o(i.OS_StrLen) for OS_StrLen
    os_tmr.o(i.OSTmrNameGet) refers to os_core.o(i.OSSchedUnlock) for OSSchedUnlock
    os_tmr.o(i.OSTmrNameGet) refers to os_core.o(.data) for OSIntNesting
    os_tmr.o(i.OSTmrRemainGet) refers to os_core.o(i.OSSchedLock) for OSSchedLock
    os_tmr.o(i.OSTmrRemainGet) refers to os_core.o(i.OSSchedUnlock) for OSSchedUnlock
    os_tmr.o(i.OSTmrRemainGet) refers to os_core.o(.data) for OSIntNesting
    os_tmr.o(i.OSTmrSignal) refers to os_sem.o(i.OSSemPost) for OSSemPost
    os_tmr.o(i.OSTmrSignal) refers to os_core.o(.data) for OSTmrSemSignal
    os_tmr.o(i.OSTmrStart) refers to os_core.o(i.OSSchedLock) for OSSchedLock
    os_tmr.o(i.OSTmrStart) refers to os_tmr.o(i.OSTmr_Unlink) for OSTmr_Unlink
    os_tmr.o(i.OSTmrStart) refers to os_tmr.o(i.OSTmr_Link) for OSTmr_Link
    os_tmr.o(i.OSTmrStart) refers to os_core.o(i.OSSchedUnlock) for OSSchedUnlock
    os_tmr.o(i.OSTmrStart) refers to os_core.o(.data) for OSIntNesting
    os_tmr.o(i.OSTmrStateGet) refers to os_core.o(i.OSSchedLock) for OSSchedLock
    os_tmr.o(i.OSTmrStateGet) refers to os_core.o(i.OSSchedUnlock) for OSSchedUnlock
    os_tmr.o(i.OSTmrStateGet) refers to os_core.o(.data) for OSIntNesting
    os_tmr.o(i.OSTmrStop) refers to os_core.o(i.OSSchedLock) for OSSchedLock
    os_tmr.o(i.OSTmrStop) refers to os_tmr.o(i.OSTmr_Unlink) for OSTmr_Unlink
    os_tmr.o(i.OSTmrStop) refers to os_core.o(i.OSSchedUnlock) for OSSchedUnlock
    os_tmr.o(i.OSTmrStop) refers to os_core.o(.data) for OSIntNesting
    os_tmr.o(i.OSTmr_Alloc) refers to os_core.o(.data) for OSTmrFreeList
    os_tmr.o(i.OSTmr_Free) refers to os_core.o(.data) for OSTmrFreeList
    os_tmr.o(i.OSTmr_Init) refers to os_core.o(i.OS_MemClr) for OS_MemClr
    os_tmr.o(i.OSTmr_Init) refers to os_sem.o(i.OSSemCreate) for OSSemCreate
    os_tmr.o(i.OSTmr_Init) refers to os_core.o(i.OSEventNameSet) for OSEventNameSet
    os_tmr.o(i.OSTmr_Init) refers to os_tmr.o(i.OSTmr_InitTask) for OSTmr_InitTask
    os_tmr.o(i.OSTmr_Init) refers to os_core.o(.bss) for OSTmrTbl
    os_tmr.o(i.OSTmr_Init) refers to os_core.o(.data) for OSTmrTime
    os_tmr.o(i.OSTmr_InitTask) refers to os_task.o(i.OSTaskCreateExt) for OSTaskCreateExt
    os_tmr.o(i.OSTmr_InitTask) refers to os_task.o(i.OSTaskNameSet) for OSTaskNameSet
    os_tmr.o(i.OSTmr_InitTask) refers to os_core.o(.bss) for OSTmrTaskStk
    os_tmr.o(i.OSTmr_InitTask) refers to os_tmr.o(i.OSTmr_Task) for OSTmr_Task
    os_tmr.o(i.OSTmr_Link) refers to os_core.o(.data) for OSTmrTime
    os_tmr.o(i.OSTmr_Link) refers to os_core.o(.bss) for OSTmrWheelTbl
    os_tmr.o(i.OSTmr_Task) refers to os_sem.o(i.OSSemPend) for OSSemPend
    os_tmr.o(i.OSTmr_Task) refers to os_core.o(i.OSSchedLock) for OSSchedLock
    os_tmr.o(i.OSTmr_Task) refers to os_tmr.o(i.OSTmr_Unlink) for OSTmr_Unlink
    os_tmr.o(i.OSTmr_Task) refers to os_tmr.o(i.OSTmr_Link) for OSTmr_Link
    os_tmr.o(i.OSTmr_Task) refers to os_core.o(i.OSSchedUnlock) for OSSchedUnlock
    os_tmr.o(i.OSTmr_Task) refers to os_core.o(.data) for OSTmrSemSignal
    os_tmr.o(i.OSTmr_Task) refers to os_core.o(.bss) for OSTmrWheelTbl
    os_tmr.o(i.OSTmr_Unlink) refers to os_core.o(.bss) for OSTmrWheelTbl
    __2sprintf.o(.text) refers to _printf_char_common.o(.text) for _printf_char_common
    __2sprintf.o(.text) refers to _sputc.o(.text) for _sputc
    noretval__2sprintf.o(.text) refers to _printf_char_common.o(.text) for _printf_char_common
    noretval__2sprintf.o(.text) refers to _sputc.o(.text) for _sputc
    __printf.o(.text) refers to _printf_percent.o(.ARM.Collect$$_printf_percent$$00000000) for _printf_percent
    _printf_dec.o(.text) refers to _printf_intcommon.o(.text) for _printf_int_common
    __printf_flags.o(.text) refers to _printf_percent.o(.ARM.Collect$$_printf_percent$$00000000) for _printf_percent
    __printf_flags.o(.text) refers to __printf_flags.o(.constdata) for .constdata
    __printf_ss.o(.text) refers to _printf_percent.o(.ARM.Collect$$_printf_percent$$00000000) for _printf_percent
    __printf_flags_ss.o(.text) refers to _printf_percent.o(.ARM.Collect$$_printf_percent$$00000000) for _printf_percent
    __printf_flags_ss.o(.text) refers to __printf_flags_ss.o(.constdata) for .constdata
    __printf_wp.o(.text) refers to __printf_wp.o(i._is_digit) for _is_digit
    __printf_wp.o(.text) refers to _printf_percent.o(.ARM.Collect$$_printf_percent$$00000000) for _printf_percent
    __printf_flags_wp.o(.text) refers to __printf_wp.o(i._is_digit) for _is_digit
    __printf_flags_wp.o(.text) refers to _printf_percent.o(.ARM.Collect$$_printf_percent$$00000000) for _printf_percent
    __printf_flags_wp.o(.text) refers to __printf_flags_wp.o(.constdata) for .constdata
    __printf_ss_wp.o(.text) refers to __printf_wp.o(i._is_digit) for _is_digit
    __printf_ss_wp.o(.text) refers to _printf_percent.o(.ARM.Collect$$_printf_percent$$00000000) for _printf_percent
    __printf_flags_ss_wp.o(.text) refers to __printf_wp.o(i._is_digit) for _is_digit
    __printf_flags_ss_wp.o(.text) refers to _printf_percent.o(.ARM.Collect$$_printf_percent$$00000000) for _printf_percent
    __printf_flags_ss_wp.o(.text) refers to __printf_flags_ss_wp.o(.constdata) for .constdata
    _printf_d.o(.ARM.Collect$$_printf_percent$$00000009) refers (Weak) to _printf_dec.o(.text) for _printf_int_dec
    _printf_u.o(.ARM.Collect$$_printf_percent$$0000000A) refers (Weak) to _printf_dec.o(.text) for _printf_int_dec
    _printf_f.o(.ARM.Collect$$_printf_percent$$00000003) refers (Weak) to printf1.o(x$fpl$printf1) for _printf_fp_dec
    _printf_percent.o(.ARM.Collect$$_printf_percent$$00000000) refers (Special) to _printf_percent_end.o(.ARM.Collect$$_printf_percent$$00000017) for _printf_percent_end
    __0sscanf.o(.text) refers to scanf_char.o(.text) for __vfscanf_char
    __0sscanf.o(.text) refers to _sgetc.o(.text) for _sgetc
    _scanf_int.o(.text) refers to _chval.o(.text) for _chval
    rt_memcpy_v6.o(.text) refers to rt_memcpy_w.o(.text) for __aeabi_memcpy4
    rt_memclr.o(.text) refers to rt_memclr_w.o(.text) for _memset_w
    strncpy.o(.text) refers to rt_memclr.o(.text) for __aeabi_memclr
    __main.o(!!!main) refers to rtentry.o(.ARM.Collect$$rtentry$$00000000) for __rt_entry
    d2f.o(x$fpl$d2f) refers (Special) to usenofp.o(x$fpl$usenofp) for __I$use$fp
    d2f.o(x$fpl$d2f) refers to fretinf.o(x$fpl$fretinf) for __fpl_fretinf
    d2f.o(x$fpl$d2f) refers to dnaninf.o(x$fpl$dnaninf) for __fpl_dnaninf
    ddiv.o(x$fpl$drdiv) refers (Special) to usenofp.o(x$fpl$usenofp) for __I$use$fp
    ddiv.o(x$fpl$drdiv) refers to ddiv.o(x$fpl$ddiv) for ddiv_entry
    ddiv.o(x$fpl$ddiv) refers (Special) to usenofp.o(x$fpl$usenofp) for __I$use$fp
    ddiv.o(x$fpl$ddiv) refers to dretinf.o(x$fpl$dretinf) for __fpl_dretinf
    ddiv.o(x$fpl$ddiv) refers to dnaninf.o(x$fpl$dnaninf) for __fpl_dnaninf
    dfix.o(x$fpl$dfix) refers (Special) to usenofp.o(x$fpl$usenofp) for __I$use$fp
    dfix.o(x$fpl$dfix) refers to dnaninf.o(x$fpl$dnaninf) for __fpl_dnaninf
    dfix.o(x$fpl$dfixr) refers (Special) to usenofp.o(x$fpl$usenofp) for __I$use$fp
    dfix.o(x$fpl$dfixr) refers to dnaninf.o(x$fpl$dnaninf) for __fpl_dnaninf
    dfixu.o(x$fpl$dfixu) refers (Special) to usenofp.o(x$fpl$usenofp) for __I$use$fp
    dfixu.o(x$fpl$dfixu) refers to dnaninf.o(x$fpl$dnaninf) for __fpl_dnaninf
    dfixu.o(x$fpl$dfixur) refers (Special) to usenofp.o(x$fpl$usenofp) for __I$use$fp
    dfixu.o(x$fpl$dfixur) refers to dnaninf.o(x$fpl$dnaninf) for __fpl_dnaninf
    dflt_clz.o(x$fpl$dfltu) refers (Special) to usenofp.o(x$fpl$usenofp) for __I$use$fp
    dflt_clz.o(x$fpl$dflt) refers (Special) to usenofp.o(x$fpl$usenofp) for __I$use$fp
    dflt_clz.o(x$fpl$dfltn) refers (Special) to usenofp.o(x$fpl$usenofp) for __I$use$fp
    dmul.o(x$fpl$dmul) refers (Special) to usenofp.o(x$fpl$usenofp) for __I$use$fp
    dmul.o(x$fpl$dmul) refers to dretinf.o(x$fpl$dretinf) for __fpl_dretinf
    dmul.o(x$fpl$dmul) refers to dnaninf.o(x$fpl$dnaninf) for __fpl_dnaninf
    f2d.o(x$fpl$f2d) refers (Special) to usenofp.o(x$fpl$usenofp) for __I$use$fp
    f2d.o(x$fpl$f2d) refers to fnaninf.o(x$fpl$fnaninf) for __fpl_fnaninf
    f2d.o(x$fpl$f2d) refers to dretinf.o(x$fpl$dretinf) for __fpl_dretinf
    faddsub_clz.o(x$fpl$fadd) refers (Special) to usenofp.o(x$fpl$usenofp) for __I$use$fp
    faddsub_clz.o(x$fpl$fadd) refers to faddsub_clz.o(x$fpl$fsub) for _fsub1
    faddsub_clz.o(x$fpl$fadd) refers to fretinf.o(x$fpl$fretinf) for __fpl_fretinf
    faddsub_clz.o(x$fpl$fadd) refers to fnaninf.o(x$fpl$fnaninf) for __fpl_fnaninf
    faddsub_clz.o(x$fpl$frsb) refers (Special) to usenofp.o(x$fpl$usenofp) for __I$use$fp
    faddsub_clz.o(x$fpl$frsb) refers to faddsub_clz.o(x$fpl$fadd) for _fadd1
    faddsub_clz.o(x$fpl$frsb) refers to faddsub_clz.o(x$fpl$fsub) for _fsub1
    faddsub_clz.o(x$fpl$fsub) refers (Special) to usenofp.o(x$fpl$usenofp) for __I$use$fp
    faddsub_clz.o(x$fpl$fsub) refers to faddsub_clz.o(x$fpl$fadd) for _fadd1
    faddsub_clz.o(x$fpl$fsub) refers to fnaninf.o(x$fpl$fnaninf) for __fpl_fnaninf
    fdiv.o(x$fpl$frdiv) refers (Special) to usenofp.o(x$fpl$usenofp) for __I$use$fp
    fdiv.o(x$fpl$frdiv) refers to fdiv.o(x$fpl$fdiv) for _fdiv1
    fdiv.o(x$fpl$fdiv) refers (Special) to usenofp.o(x$fpl$usenofp) for __I$use$fp
    fdiv.o(x$fpl$fdiv) refers to fretinf.o(x$fpl$fretinf) for __fpl_fretinf
    fdiv.o(x$fpl$fdiv) refers to fnaninf.o(x$fpl$fnaninf) for __fpl_fnaninf
    ffix.o(x$fpl$ffix) refers (Special) to usenofp.o(x$fpl$usenofp) for __I$use$fp
    ffix.o(x$fpl$ffix) refers to fnaninf.o(x$fpl$fnaninf) for __fpl_fnaninf
    ffix.o(x$fpl$ffixr) refers (Special) to usenofp.o(x$fpl$usenofp) for __I$use$fp
    ffix.o(x$fpl$ffixr) refers to fnaninf.o(x$fpl$fnaninf) for __fpl_fnaninf
    ffixu.o(x$fpl$ffixu) refers (Special) to usenofp.o(x$fpl$usenofp) for __I$use$fp
    ffixu.o(x$fpl$ffixu) refers to fnaninf.o(x$fpl$fnaninf) for __fpl_fnaninf
    ffixu.o(x$fpl$ffixur) refers (Special) to usenofp.o(x$fpl$usenofp) for __I$use$fp
    ffixu.o(x$fpl$ffixur) refers to fnaninf.o(x$fpl$fnaninf) for __fpl_fnaninf
    fflt_clz.o(x$fpl$ffltu) refers (Special) to usenofp.o(x$fpl$usenofp) for __I$use$fp
    fflt_clz.o(x$fpl$fflt) refers (Special) to usenofp.o(x$fpl$usenofp) for __I$use$fp
    fflt_clz.o(x$fpl$ffltn) refers (Special) to usenofp.o(x$fpl$usenofp) for __I$use$fp
    fmul.o(x$fpl$fmul) refers (Special) to usenofp.o(x$fpl$usenofp) for __I$use$fp
    fmul.o(x$fpl$fmul) refers to fretinf.o(x$fpl$fretinf) for __fpl_fretinf
    fmul.o(x$fpl$fmul) refers to fnaninf.o(x$fpl$fnaninf) for __fpl_fnaninf
    printf1.o(x$fpl$printf1) refers to _printf_fp_dec.o(.text) for _printf_fp_dec_real
    rtentry.o(.ARM.Collect$$rtentry$$00000000) refers (Special) to rtentry2.o(.ARM.Collect$$rtentry$$0000000A) for __rt_entry_li
    rtentry.o(.ARM.Collect$$rtentry$$00000000) refers (Special) to rtentry2.o(.ARM.Collect$$rtentry$$0000000D) for __rt_entry_main
    rtentry.o(.ARM.Collect$$rtentry$$00000000) refers (Special) to rtentry2.o(.ARM.Collect$$rtentry$$0000000C) for __rt_entry_postli_1
    rtentry.o(.ARM.Collect$$rtentry$$00000000) refers (Special) to rtentry2.o(.ARM.Collect$$rtentry$$00000009) for __rt_entry_postsh_1
    rtentry.o(.ARM.Collect$$rtentry$$00000000) refers (Special) to rtentry2.o(.ARM.Collect$$rtentry$$00000002) for __rt_entry_presh_1
    rtentry.o(.ARM.Collect$$rtentry$$00000000) refers (Special) to rtentry4.o(.ARM.Collect$$rtentry$$00000004) for __rt_entry_sh
    _printf_intcommon.o(.text) refers (Weak) to _printf_pad.o(.text) for _printf_pre_padding
    _printf_intcommon.o(.text) refers (Weak) to _printf_pad.o(.text) for _printf_pre_padding
    _printf_intcommon.o(.text) refers (Weak) to _printf_pad.o(.text) for _printf_post_padding
    _printf_fp_dec.o(.text) refers (Special) to usenofp.o(x$fpl$usenofp) for __I$use$fp
    _printf_fp_dec.o(.text) refers (Special) to lc_numeric_c.o(locale$$code) for _get_lc_numeric
    _printf_fp_dec.o(.text) refers to bigflt0.o(.text) for _btod_etento
    _printf_fp_dec.o(.text) refers to btod.o(CL$$btod_d2e) for _btod_d2e
    _printf_fp_dec.o(.text) refers to btod.o(CL$$btod_ediv) for _btod_ediv
    _printf_fp_dec.o(.text) refers to btod.o(CL$$btod_emul) for _btod_emul
    _printf_fp_dec.o(.text) refers to lludiv10.o(.text) for _ll_udiv10
    _printf_fp_dec.o(.text) refers to fpclassify.o(i.__ARM_fpclassify) for __ARM_fpclassify
    _printf_fp_dec.o(.text) refers to _printf_fp_infnan.o(.text) for _printf_fp_infnan
    _printf_fp_dec.o(.text) refers (Weak) to _printf_pad.o(.text) for _printf_pre_padding
    _printf_fp_dec.o(.text) refers (Weak) to _printf_pad.o(.text) for _printf_pre_padding
    _printf_fp_dec.o(.text) refers to rt_locale_intlibspace.o(.text) for __rt_locale
    _printf_fp_dec.o(.text) refers (Weak) to _printf_pad.o(.text) for _printf_post_padding
    _printf_char_common.o(.text) refers to __printf_flags_wp.o(.text) for __printf
    scanf_char.o(.text) refers to _scanf.o(.text) for __vfscanf
    scanf_char.o(.text) refers to isspace.o(.text) for isspace
    dnaninf.o(x$fpl$dnaninf) refers (Special) to usenofp.o(x$fpl$usenofp) for __I$use$fp
    dretinf.o(x$fpl$dretinf) refers (Special) to usenofp.o(x$fpl$usenofp) for __I$use$fp
    fnaninf.o(x$fpl$fnaninf) refers (Special) to usenofp.o(x$fpl$usenofp) for __I$use$fp
    fretinf.o(x$fpl$fretinf) refers (Special) to usenofp.o(x$fpl$usenofp) for __I$use$fp
    rtentry2.o(.ARM.Collect$$rtentry$$00000008) refers to boardinit2.o(.text) for _platform_post_stackheap_init
    rtentry2.o(.ARM.Collect$$rtentry$$0000000A) refers to libinit.o(.ARM.Collect$$libinit$$00000000) for __rt_lib_init
    rtentry2.o(.ARM.Collect$$rtentry$$0000000B) refers to boardinit3.o(.text) for _platform_post_lib_init
    rtentry2.o(.ARM.Collect$$rtentry$$0000000D) refers to main.o(i.main) for main
    rtentry2.o(.ARM.Collect$$rtentry$$0000000D) refers to exit.o(.text) for exit
    rtentry2.o(.ARM.exidx) refers to rtentry2.o(.ARM.Collect$$rtentry$$00000001) for .ARM.Collect$$rtentry$$00000001
    rtentry2.o(.ARM.exidx) refers to rtentry2.o(.ARM.Collect$$rtentry$$00000008) for .ARM.Collect$$rtentry$$00000008
    rtentry2.o(.ARM.exidx) refers to rtentry2.o(.ARM.Collect$$rtentry$$0000000A) for .ARM.Collect$$rtentry$$0000000A
    rtentry2.o(.ARM.exidx) refers to rtentry2.o(.ARM.Collect$$rtentry$$0000000B) for .ARM.Collect$$rtentry$$0000000B
    rtentry2.o(.ARM.exidx) refers to rtentry2.o(.ARM.Collect$$rtentry$$0000000D) for .ARM.Collect$$rtentry$$0000000D
    rtentry4.o(.ARM.Collect$$rtentry$$00000004) refers to sys_stackheap_outer.o(.text) for __user_setup_stackheap
    rtentry4.o(.ARM.exidx) refers to rtentry4.o(.ARM.Collect$$rtentry$$00000004) for .ARM.Collect$$rtentry$$00000004
    rt_locale.o(.text) refers to rt_locale.o(.bss) for __rt_locale_data
    rt_locale_intlibspace.o(.text) refers to libspace.o(.bss) for __libspace_start
    isspace.o(.text) refers to rt_ctype_table.o(.text) for __rt_ctype_table
    _printf_fp_infnan.o(.text) refers (Weak) to _printf_pad.o(.text) for _printf_pre_padding
    _printf_fp_infnan.o(.text) refers (Weak) to _printf_pad.o(.text) for _printf_post_padding
    _scanf.o(.text) refers (Weak) to _scanf_int.o(.text) for _scanf_int
    bigflt0.o(.text) refers (Special) to usenofp.o(x$fpl$usenofp) for __I$use$fp
    bigflt0.o(.text) refers to btod.o(CL$$btod_emul) for _btod_emul
    bigflt0.o(.text) refers to btod.o(CL$$btod_ediv) for _btod_ediv
    bigflt0.o(.text) refers to bigflt0.o(.constdata) for .constdata
    bigflt0.o(.constdata) refers (Special) to usenofp.o(x$fpl$usenofp) for __I$use$fp
    btod.o(CL$$btod_d2e) refers (Special) to usenofp.o(x$fpl$usenofp) for __I$use$fp
    btod.o(CL$$btod_d2e) refers to btod.o(CL$$btod_d2e_norm_op1) for _d2e_norm_op1
    btod.o(CL$$btod_d2e_norm_op1) refers (Special) to usenofp.o(x$fpl$usenofp) for __I$use$fp
    btod.o(CL$$btod_d2e_norm_op1) refers to btod.o(CL$$btod_d2e_denorm_low) for _d2e_denorm_low
    btod.o(CL$$btod_d2e_denorm_low) refers (Special) to usenofp.o(x$fpl$usenofp) for __I$use$fp
    btod.o(CL$$btod_emul) refers (Special) to usenofp.o(x$fpl$usenofp) for __I$use$fp
    btod.o(CL$$btod_emul) refers to btod.o(CL$$btod_mult_common) for __btod_mult_common
    btod.o(CL$$btod_emul) refers to btod.o(CL$$btod_e2e) for _e2e
    btod.o(CL$$btod_ediv) refers (Special) to usenofp.o(x$fpl$usenofp) for __I$use$fp
    btod.o(CL$$btod_ediv) refers to btod.o(CL$$btod_div_common) for __btod_div_common
    btod.o(CL$$btod_ediv) refers to btod.o(CL$$btod_e2e) for _e2e
    btod.o(CL$$btod_emuld) refers (Special) to usenofp.o(x$fpl$usenofp) for __I$use$fp
    btod.o(CL$$btod_emuld) refers to btod.o(CL$$btod_mult_common) for __btod_mult_common
    btod.o(CL$$btod_emuld) refers to btod.o(CL$$btod_e2d) for _e2d
    btod.o(CL$$btod_edivd) refers (Special) to usenofp.o(x$fpl$usenofp) for __I$use$fp
    btod.o(CL$$btod_edivd) refers to btod.o(CL$$btod_div_common) for __btod_div_common
    btod.o(CL$$btod_edivd) refers to btod.o(CL$$btod_e2d) for _e2d
    btod.o(CL$$btod_e2e) refers (Special) to usenofp.o(x$fpl$usenofp) for __I$use$fp
    btod.o(CL$$btod_e2d) refers (Special) to usenofp.o(x$fpl$usenofp) for __I$use$fp
    btod.o(CL$$btod_e2d) refers to btod.o(CL$$btod_e2e) for _e2e
    btod.o(CL$$btod_mult_common) refers (Special) to usenofp.o(x$fpl$usenofp) for __I$use$fp
    btod.o(CL$$btod_div_common) refers (Special) to usenofp.o(x$fpl$usenofp) for __I$use$fp
    lc_numeric_c.o(locale$$data) refers (Special) to libinit2.o(.ARM.Collect$$libinit$$00000014) for __rt_lib_init_lc_numeric_2
    lc_numeric_c.o(locale$$code) refers (Special) to libinit2.o(.ARM.Collect$$libinit$$00000014) for __rt_lib_init_lc_numeric_2
    lc_numeric_c.o(locale$$code) refers to strcmpv7m.o(.text) for strcmp
    lc_numeric_c.o(locale$$code) refers to lc_numeric_c.o(locale$$data) for __lcnum_c_name
    istatus.o(x$fpl$ieeestatus) refers (Special) to usenofp.o(x$fpl$usenofp) for __I$use$fp
    fpclassify.o(i.__ARM_fpclassify) refers (Special) to usenofp.o(x$fpl$usenofp) for __I$use$fp
    libspace.o(.text) refers to libspace.o(.bss) for __libspace_start
    sys_stackheap_outer.o(.text) refers to libspace.o(.text) for __user_perproc_libspace
    sys_stackheap_outer.o(.text) refers to startup_stm32f10x_hd.o(.text) for __user_initial_stackheap
    rt_ctype_table.o(.text) refers to rt_locale_intlibspace.o(.text) for __rt_locale
    rt_ctype_table.o(.text) refers to lc_ctype_c.o(locale$$code) for _get_lc_ctype
    exit.o(.text) refers to rtexit.o(.ARM.Collect$$rtexit$$00000000) for __rt_exit
    libinit.o(.ARM.Collect$$libinit$$00000000) refers (Special) to libinit2.o(.ARM.Collect$$libinit$$0000002C) for __rt_lib_init_alloca_1
    libinit.o(.ARM.Collect$$libinit$$00000000) refers (Special) to libinit2.o(.ARM.Collect$$libinit$$0000002A) for __rt_lib_init_argv_1
    libinit.o(.ARM.Collect$$libinit$$00000000) refers (Special) to libinit2.o(.ARM.Collect$$libinit$$00000019) for __rt_lib_init_atexit_1
    libinit.o(.ARM.Collect$$libinit$$00000000) refers (Special) to libinit2.o(.ARM.Collect$$libinit$$0000001F) for __rt_lib_init_clock_1
    libinit.o(.ARM.Collect$$libinit$$00000000) refers (Special) to libinit2.o(.ARM.Collect$$libinit$$00000030) for __rt_lib_init_cpp_1
    libinit.o(.ARM.Collect$$libinit$$00000000) refers (Special) to libinit2.o(.ARM.Collect$$libinit$$0000002E) for __rt_lib_init_exceptions_1
    libinit.o(.ARM.Collect$$libinit$$00000000) refers (Special) to libinit2.o(.ARM.Collect$$libinit$$00000002) for __rt_lib_init_fp_1
    libinit.o(.ARM.Collect$$libinit$$00000000) refers (Special) to libinit2.o(.ARM.Collect$$libinit$$0000001D) for __rt_lib_init_fp_trap_1
    libinit.o(.ARM.Collect$$libinit$$00000000) refers (Special) to libinit2.o(.ARM.Collect$$libinit$$00000021) for __rt_lib_init_getenv_1
    libinit.o(.ARM.Collect$$libinit$$00000000) refers (Special) to libinit2.o(.ARM.Collect$$libinit$$00000008) for __rt_lib_init_heap_1
    libinit.o(.ARM.Collect$$libinit$$00000000) refers (Special) to libinit2.o(.ARM.Collect$$libinit$$0000000F) for __rt_lib_init_lc_collate_1
    libinit.o(.ARM.Collect$$libinit$$00000000) refers (Special) to libinit2.o(.ARM.Collect$$libinit$$00000011) for __rt_lib_init_lc_ctype_1
    libinit.o(.ARM.Collect$$libinit$$00000000) refers (Special) to libinit2.o(.ARM.Collect$$libinit$$00000013) for __rt_lib_init_lc_monetary_1
    libinit.o(.ARM.Collect$$libinit$$00000000) refers (Special) to libinit2.o(.ARM.Collect$$libinit$$00000015) for __rt_lib_init_lc_numeric_1
    libinit.o(.ARM.Collect$$libinit$$00000000) refers (Special) to libinit2.o(.ARM.Collect$$libinit$$00000017) for __rt_lib_init_lc_time_1
    libinit.o(.ARM.Collect$$libinit$$00000000) refers (Special) to libinit2.o(.ARM.Collect$$libinit$$0000000C) for __rt_lib_init_rand_1
    libinit.o(.ARM.Collect$$libinit$$00000000) refers (Special) to libinit2.o(.ARM.Collect$$libinit$$00000031) for __rt_lib_init_return
    libinit.o(.ARM.Collect$$libinit$$00000000) refers (Special) to libinit2.o(.ARM.Collect$$libinit$$0000001B) for __rt_lib_init_signal_1
    libinit.o(.ARM.Collect$$libinit$$00000000) refers (Special) to libinit2.o(.ARM.Collect$$libinit$$00000023) for __rt_lib_init_stdio_1
    libinit.o(.ARM.Collect$$libinit$$00000000) refers (Special) to libinit2.o(.ARM.Collect$$libinit$$0000000A) for __rt_lib_init_user_alloc_1
    libinit2.o(.ARM.Collect$$libinit$$0000000D) refers (Weak) to rt_locale_intlibspace.o(.text) for __rt_locale
    libinit2.o(.ARM.Collect$$libinit$$0000000E) refers to libinit2.o(.ARM.Collect$$libinit$$0000000D) for .ARM.Collect$$libinit$$0000000D
    libinit2.o(.ARM.Collect$$libinit$$00000010) refers to libinit2.o(.ARM.Collect$$libinit$$0000000D) for .ARM.Collect$$libinit$$0000000D
    libinit2.o(.ARM.Collect$$libinit$$00000010) refers (Weak) to lc_ctype_c.o(locale$$code) for _get_lc_ctype
    libinit2.o(.ARM.Collect$$libinit$$00000012) refers to libinit2.o(.ARM.Collect$$libinit$$0000000D) for .ARM.Collect$$libinit$$0000000D
    libinit2.o(.ARM.Collect$$libinit$$00000014) refers to libinit2.o(.ARM.Collect$$libinit$$0000000D) for .ARM.Collect$$libinit$$0000000D
    libinit2.o(.ARM.Collect$$libinit$$00000014) refers (Weak) to lc_numeric_c.o(locale$$code) for _get_lc_numeric
    libinit2.o(.ARM.Collect$$libinit$$00000016) refers to libinit2.o(.ARM.Collect$$libinit$$0000000D) for .ARM.Collect$$libinit$$0000000D
    libinit2.o(.ARM.Collect$$libinit$$00000024) refers to argv_veneer.o(.emb_text) for __ARM_argv_veneer
    libinit2.o(.ARM.Collect$$libinit$$00000025) refers to argv_veneer.o(.emb_text) for __ARM_argv_veneer
    rtexit.o(.ARM.Collect$$rtexit$$00000000) refers (Special) to rtexit2.o(.ARM.Collect$$rtexit$$00000004) for __rt_exit_exit
    rtexit.o(.ARM.Collect$$rtexit$$00000000) refers (Special) to rtexit2.o(.ARM.Collect$$rtexit$$00000003) for __rt_exit_ls
    rtexit.o(.ARM.Collect$$rtexit$$00000000) refers (Special) to rtexit2.o(.ARM.Collect$$rtexit$$00000002) for __rt_exit_prels_1
    rtexit.o(.ARM.exidx) refers (Special) to rtexit2.o(.ARM.Collect$$rtexit$$00000004) for __rt_exit_exit
    rtexit.o(.ARM.exidx) refers (Special) to rtexit2.o(.ARM.Collect$$rtexit$$00000003) for __rt_exit_ls
    rtexit.o(.ARM.exidx) refers (Special) to rtexit2.o(.ARM.Collect$$rtexit$$00000002) for __rt_exit_prels_1
    rtexit.o(.ARM.exidx) refers to rtexit.o(.ARM.Collect$$rtexit$$00000000) for .ARM.Collect$$rtexit$$00000000
    lc_ctype_c.o(locale$$data) refers (Special) to libinit2.o(.ARM.Collect$$libinit$$00000010) for __rt_lib_init_lc_ctype_2
    lc_ctype_c.o(locale$$code) refers (Special) to libinit2.o(.ARM.Collect$$libinit$$00000010) for __rt_lib_init_lc_ctype_2
    lc_ctype_c.o(locale$$code) refers to strcmpv7m.o(.text) for strcmp
    lc_ctype_c.o(locale$$code) refers to lc_ctype_c.o(locale$$data) for __lcctype_c_name
    argv_veneer.o(.emb_text) refers to no_argv.o(.text) for __ARM_get_argv
    rtexit2.o(.ARM.Collect$$rtexit$$00000003) refers to libshutdown.o(.ARM.Collect$$libshutdown$$00000000) for __rt_lib_shutdown
    rtexit2.o(.ARM.Collect$$rtexit$$00000004) refers to sys_exit.o(.text) for _sys_exit
    rtexit2.o(.ARM.exidx) refers to rtexit2.o(.ARM.Collect$$rtexit$$00000001) for .ARM.Collect$$rtexit$$00000001
    rtexit2.o(.ARM.exidx) refers to rtexit2.o(.ARM.Collect$$rtexit$$00000003) for .ARM.Collect$$rtexit$$00000003
    rtexit2.o(.ARM.exidx) refers to rtexit2.o(.ARM.Collect$$rtexit$$00000004) for .ARM.Collect$$rtexit$$00000004
    _get_argv_nomalloc.o(.text) refers (Special) to hrguard.o(.text) for __heap_region$guard
    _get_argv_nomalloc.o(.text) refers to defsig_rtmem_outer.o(.text) for __rt_SIGRTMEM
    _get_argv_nomalloc.o(.text) refers to sys_command.o(.text) for _sys_command_string
    sys_command.o(.text) refers (Special) to use_no_semi.o(.text) for __I$use$semihosting
    sys_command.o(.text) refers (Special) to indicate_semi.o(.text) for __semihosting_library_function
    sys_exit.o(.text) refers (Special) to use_no_semi.o(.text) for __I$use$semihosting
    sys_exit.o(.text) refers (Special) to indicate_semi.o(.text) for __semihosting_library_function
    defsig_rtmem_outer.o(.text) refers to defsig_rtmem_inner.o(.text) for __rt_SIGRTMEM_inner
    defsig_rtmem_outer.o(.text) refers to defsig_exit.o(.text) for __sig_exit
    defsig_rtmem_formal.o(.text) refers to rt_raise.o(.text) for __rt_raise
    libshutdown.o(.ARM.Collect$$libshutdown$$00000000) refers (Special) to libshutdown2.o(.ARM.Collect$$libshutdown$$00000006) for __rt_lib_shutdown_fp_trap_1
    libshutdown.o(.ARM.Collect$$libshutdown$$00000000) refers (Special) to libshutdown2.o(.ARM.Collect$$libshutdown$$0000000E) for __rt_lib_shutdown_heap_1
    libshutdown.o(.ARM.Collect$$libshutdown$$00000000) refers (Special) to libshutdown2.o(.ARM.Collect$$libshutdown$$0000000F) for __rt_lib_shutdown_return
    libshutdown.o(.ARM.Collect$$libshutdown$$00000000) refers (Special) to libshutdown2.o(.ARM.Collect$$libshutdown$$00000009) for __rt_lib_shutdown_signal_1
    libshutdown.o(.ARM.Collect$$libshutdown$$00000000) refers (Special) to libshutdown2.o(.ARM.Collect$$libshutdown$$00000003) for __rt_lib_shutdown_stdio_1
    libshutdown.o(.ARM.Collect$$libshutdown$$00000000) refers (Special) to libshutdown2.o(.ARM.Collect$$libshutdown$$0000000B) for __rt_lib_shutdown_user_alloc_1
    rt_raise.o(.text) refers to __raise.o(.text) for __raise
    rt_raise.o(.text) refers to sys_exit.o(.text) for _sys_exit
    defsig_exit.o(.text) refers to sys_exit.o(.text) for _sys_exit
    defsig_rtmem_inner.o(.text) refers to defsig_general.o(.text) for __default_signal_display
    __raise.o(.text) refers to defsig.o(CL$$defsig) for __default_signal_handler
    defsig_general.o(.text) refers to sys_wrch.o(.text) for _ttywrch
    sys_wrch.o(.text) refers (Special) to use_no_semi.o(.text) for __I$use$semihosting
    sys_wrch.o(.text) refers (Special) to indicate_semi.o(.text) for __semihosting_library_function
    defsig.o(CL$$defsig) refers to defsig_rtmem_inner.o(.text) for __rt_SIGRTMEM_inner
    defsig_abrt_inner.o(.text) refers to defsig_general.o(.text) for __default_signal_display
    defsig_fpe_inner.o(.text) refers to defsig_general.o(.text) for __default_signal_display
    defsig_rtred_inner.o(.text) refers to defsig_general.o(.text) for __default_signal_display
    defsig_stak_inner.o(.text) refers to defsig_general.o(.text) for __default_signal_display
    defsig_pvfn_inner.o(.text) refers to defsig_general.o(.text) for __default_signal_display
    defsig_cppl_inner.o(.text) refers to defsig_general.o(.text) for __default_signal_display
    defsig_segv_inner.o(.text) refers to defsig_general.o(.text) for __default_signal_display
    defsig_other.o(.text) refers to defsig_general.o(.text) for __default_signal_display


==============================================================================

Removing Unused input sections from the image.

    Removing core_cm3.o(.emb_text), (32 bytes).
    Removing system_stm32f10x.o(i.SystemCoreClockUpdate), (172 bytes).
    Removing system_stm32f10x.o(.data), (20 bytes).
    Removing stm32f10x_it.o(i.PendSV_Handler), (2 bytes).
    Removing guestrespond.o(i.GetDataFromSeparator), (70 bytes).
    Removing guestrespond.o(i.GetDecValueFromBuffer), (50 bytes).
    Removing midfunction.o(i.PowerOffCheck), (28 bytes).
    Removing midfunction.o(i.Sys_Enter_Standby), (32 bytes).
    Removing midfunction.o(i.Time3_Init), (92 bytes).
    Removing adc.o(i.BusCurrentIsZero), (18 bytes).
    Removing adc.o(i.DetIsInsert), (46 bytes).
    Removing adc.o(i.GetChannelxVoltage), (72 bytes).
    Removing i2c.o(i.I2C_Ack), (80 bytes).
    Removing i2c.o(i.I2C_NoAck), (80 bytes).
    Removing i2c.o(i.I2C_ReadByte), (120 bytes).
    Removing i2c.o(i.I2C_ReadData), (142 bytes).
    Removing i2c.o(i.I2C_ReceiveByte), (108 bytes).
    Removing lcdutils.o(i.LcdDrawLineH), (38 bytes).
    Removing lcdutils.o(i.LcdDrawLineV), (38 bytes).
    Removing lcdutils.o(i.LcdGetBackColor), (12 bytes).
    Removing lcdutils.o(i.LcdGetFont), (12 bytes).
    Removing lcdutils.o(i.LcdGetFontState), (12 bytes).
    Removing lcdutils.o(i.LcdGetFrontColor), (12 bytes).
    Removing lcdutils.o(i.LcdSetFrontBackColor), (12 bytes).
    Removing lcd.o(i.LcdDisplayOff), (22 bytes).
    Removing lcd.o(i.LcdDisplayOn), (22 bytes).
    Removing lcd.o(i.LcdOn), (56 bytes).
    Removing slip.o(i.Comm_RcvNByte), (106 bytes).
    Removing slip.o(i.Get_Sum_Verify), (30 bytes).
    Removing ch374interface.o(i.Ch374HardwareState), (24 bytes).
    Removing misc.o(i.NVIC_PriorityGroupConfig), (20 bytes).
    Removing misc.o(i.NVIC_SystemLPConfig), (32 bytes).
    Removing misc.o(i.SysTick_CLKSourceConfig), (40 bytes).
    Removing stm32f10x_exti.o(i.EXTI_ClearFlag), (12 bytes).
    Removing stm32f10x_exti.o(i.EXTI_DeInit), (36 bytes).
    Removing stm32f10x_exti.o(i.EXTI_GenerateSWInterrupt), (16 bytes).
    Removing stm32f10x_exti.o(i.EXTI_GetFlagStatus), (24 bytes).
    Removing stm32f10x_exti.o(i.EXTI_StructInit), (16 bytes).
    Removing stm32f10x_gpio.o(i.GPIO_AFIODeInit), (20 bytes).
    Removing stm32f10x_gpio.o(i.GPIO_DeInit), (200 bytes).
    Removing stm32f10x_gpio.o(i.GPIO_ETH_MediaInterfaceConfig), (12 bytes).
    Removing stm32f10x_gpio.o(i.GPIO_EventOutputCmd), (12 bytes).
    Removing stm32f10x_gpio.o(i.GPIO_EventOutputConfig), (32 bytes).
    Removing stm32f10x_gpio.o(i.GPIO_PinLockConfig), (18 bytes).
    Removing stm32f10x_gpio.o(i.GPIO_ReadInputData), (8 bytes).
    Removing stm32f10x_gpio.o(i.GPIO_ReadOutputData), (8 bytes).
    Removing stm32f10x_gpio.o(i.GPIO_ReadOutputDataBit), (18 bytes).
    Removing stm32f10x_gpio.o(i.GPIO_StructInit), (16 bytes).
    Removing stm32f10x_gpio.o(i.GPIO_Write), (4 bytes).
    Removing stm32f10x_gpio.o(i.GPIO_WriteBit), (10 bytes).
    Removing stm32f10x_rcc.o(i.RCC_AHBPeriphClockCmd), (32 bytes).
    Removing stm32f10x_rcc.o(i.RCC_APB1PeriphResetCmd), (32 bytes).
    Removing stm32f10x_rcc.o(i.RCC_APB2PeriphResetCmd), (32 bytes).
    Removing stm32f10x_rcc.o(i.RCC_AdjustHSICalibrationValue), (24 bytes).
    Removing stm32f10x_rcc.o(i.RCC_BackupResetCmd), (12 bytes).
    Removing stm32f10x_rcc.o(i.RCC_ClearFlag), (20 bytes).
    Removing stm32f10x_rcc.o(i.RCC_ClearITPendingBit), (12 bytes).
    Removing stm32f10x_rcc.o(i.RCC_ClockSecuritySystemCmd), (12 bytes).
    Removing stm32f10x_rcc.o(i.RCC_DeInit), (76 bytes).
    Removing stm32f10x_rcc.o(i.RCC_GetFlagStatus), (60 bytes).
    Removing stm32f10x_rcc.o(i.RCC_GetITStatus), (24 bytes).
    Removing stm32f10x_rcc.o(i.RCC_GetSYSCLKSource), (16 bytes).
    Removing stm32f10x_rcc.o(i.RCC_HCLKConfig), (24 bytes).
    Removing stm32f10x_rcc.o(i.RCC_HSEConfig), (76 bytes).
    Removing stm32f10x_rcc.o(i.RCC_HSICmd), (12 bytes).
    Removing stm32f10x_rcc.o(i.RCC_ITConfig), (32 bytes).
    Removing stm32f10x_rcc.o(i.RCC_LSEConfig), (52 bytes).
    Removing stm32f10x_rcc.o(i.RCC_LSICmd), (12 bytes).
    Removing stm32f10x_rcc.o(i.RCC_MCOConfig), (12 bytes).
    Removing stm32f10x_rcc.o(i.RCC_PCLK1Config), (24 bytes).
    Removing stm32f10x_rcc.o(i.RCC_PCLK2Config), (24 bytes).
    Removing stm32f10x_rcc.o(i.RCC_PLLCmd), (12 bytes).
    Removing stm32f10x_rcc.o(i.RCC_PLLConfig), (28 bytes).
    Removing stm32f10x_rcc.o(i.RCC_RTCCLKCmd), (12 bytes).
    Removing stm32f10x_rcc.o(i.RCC_RTCCLKConfig), (16 bytes).
    Removing stm32f10x_rcc.o(i.RCC_SYSCLKConfig), (24 bytes).
    Removing stm32f10x_rcc.o(i.RCC_USBCLKConfig), (12 bytes).
    Removing stm32f10x_rcc.o(i.RCC_WaitForHSEStartUp), (56 bytes).
    Removing stm32f10x_spi.o(i.I2S_Cmd), (24 bytes).
    Removing stm32f10x_spi.o(i.I2S_Init), (232 bytes).
    Removing stm32f10x_spi.o(i.I2S_StructInit), (20 bytes).
    Removing stm32f10x_spi.o(i.SPI_BiDirectionalLineConfig), (28 bytes).
    Removing stm32f10x_spi.o(i.SPI_CalculateCRC), (24 bytes).
    Removing stm32f10x_spi.o(i.SPI_DataSizeConfig), (18 bytes).
    Removing stm32f10x_spi.o(i.SPI_GetCRC), (16 bytes).
    Removing stm32f10x_spi.o(i.SPI_GetCRCPolynomial), (6 bytes).
    Removing stm32f10x_spi.o(i.SPI_I2S_ClearFlag), (6 bytes).
    Removing stm32f10x_spi.o(i.SPI_I2S_ClearITPendingBit), (20 bytes).
    Removing stm32f10x_spi.o(i.SPI_I2S_DMACmd), (18 bytes).
    Removing stm32f10x_spi.o(i.SPI_I2S_DeInit), (88 bytes).
    Removing stm32f10x_spi.o(i.SPI_I2S_GetITStatus), (52 bytes).
    Removing stm32f10x_spi.o(i.SPI_I2S_ITConfig), (32 bytes).
    Removing stm32f10x_spi.o(i.SPI_NSSInternalSoftwareConfig), (30 bytes).
    Removing stm32f10x_spi.o(i.SPI_SSOutputCmd), (24 bytes).
    Removing stm32f10x_spi.o(i.SPI_StructInit), (24 bytes).
    Removing stm32f10x_spi.o(i.SPI_TransmitCRC), (10 bytes).
    Removing stm32f10x_adc.o(i.ADC_AnalogWatchdogCmd), (20 bytes).
    Removing stm32f10x_adc.o(i.ADC_AnalogWatchdogSingleChannelConfig), (16 bytes).
    Removing stm32f10x_adc.o(i.ADC_AnalogWatchdogThresholdsConfig), (6 bytes).
    Removing stm32f10x_adc.o(i.ADC_AutoInjectedConvCmd), (22 bytes).
    Removing stm32f10x_adc.o(i.ADC_ClearITPendingBit), (10 bytes).
    Removing stm32f10x_adc.o(i.ADC_DMACmd), (22 bytes).
    Removing stm32f10x_adc.o(i.ADC_DeInit), (92 bytes).
    Removing stm32f10x_adc.o(i.ADC_DiscModeChannelCountConfig), (24 bytes).
    Removing stm32f10x_adc.o(i.ADC_DiscModeCmd), (22 bytes).
    Removing stm32f10x_adc.o(i.ADC_ExternalTrigConvCmd), (22 bytes).
    Removing stm32f10x_adc.o(i.ADC_ExternalTrigInjectedConvCmd), (22 bytes).
    Removing stm32f10x_adc.o(i.ADC_ExternalTrigInjectedConvConfig), (16 bytes).
    Removing stm32f10x_adc.o(i.ADC_GetDualModeConversionValue), (12 bytes).
    Removing stm32f10x_adc.o(i.ADC_GetITStatus), (36 bytes).
    Removing stm32f10x_adc.o(i.ADC_GetInjectedConversionValue), (28 bytes).
    Removing stm32f10x_adc.o(i.ADC_GetSoftwareStartConvStatus), (20 bytes).
    Removing stm32f10x_adc.o(i.ADC_GetSoftwareStartInjectedConvCmdStatus), (20 bytes).
    Removing stm32f10x_adc.o(i.ADC_ITConfig), (24 bytes).
    Removing stm32f10x_adc.o(i.ADC_InjectedChannelConfig), (130 bytes).
    Removing stm32f10x_adc.o(i.ADC_InjectedDiscModeCmd), (22 bytes).
    Removing stm32f10x_adc.o(i.ADC_InjectedSequencerLengthConfig), (24 bytes).
    Removing stm32f10x_adc.o(i.ADC_SetInjectedOffset), (20 bytes).
    Removing stm32f10x_adc.o(i.ADC_SoftwareStartInjectedConvCmd), (22 bytes).
    Removing stm32f10x_adc.o(i.ADC_StructInit), (18 bytes).
    Removing stm32f10x_adc.o(i.ADC_TempSensorVrefintCmd), (36 bytes).
    Removing stm32f10x_flash.o(i.FLASH_EnableWriteProtection), (196 bytes).
    Removing stm32f10x_flash.o(i.FLASH_EraseAllBank1Pages), (72 bytes).
    Removing stm32f10x_flash.o(i.FLASH_EraseAllPages), (72 bytes).
    Removing stm32f10x_flash.o(i.FLASH_EraseOptionBytes), (168 bytes).
    Removing stm32f10x_flash.o(i.FLASH_GetFlagStatus), (48 bytes).
    Removing stm32f10x_flash.o(i.FLASH_GetPrefetchBufferStatus), (24 bytes).
    Removing stm32f10x_flash.o(i.FLASH_GetReadOutProtectionStatus), (24 bytes).
    Removing stm32f10x_flash.o(i.FLASH_GetStatus), (52 bytes).
    Removing stm32f10x_flash.o(i.FLASH_GetUserOptionByte), (12 bytes).
    Removing stm32f10x_flash.o(i.FLASH_GetWriteProtectionOptionByte), (12 bytes).
    Removing stm32f10x_flash.o(i.FLASH_HalfCycleAccessCmd), (28 bytes).
    Removing stm32f10x_flash.o(i.FLASH_ITConfig), (32 bytes).
    Removing stm32f10x_flash.o(i.FLASH_LockBank1), (20 bytes).
    Removing stm32f10x_flash.o(i.FLASH_PrefetchBufferCmd), (28 bytes).
    Removing stm32f10x_flash.o(i.FLASH_ProgramOptionByteData), (84 bytes).
    Removing stm32f10x_flash.o(i.FLASH_ProgramWord), (108 bytes).
    Removing stm32f10x_flash.o(i.FLASH_ReadOutProtection), (172 bytes).
    Removing stm32f10x_flash.o(i.FLASH_SetLatency), (24 bytes).
    Removing stm32f10x_flash.o(i.FLASH_UnlockBank1), (24 bytes).
    Removing stm32f10x_flash.o(i.FLASH_UserOptionByteConfig), (104 bytes).
    Removing stm32f10x_flash.o(i.FLASH_WaitForLastBank1Operation), (38 bytes).
    Removing stm32f10x_iwdg.o(i.IWDG_GetFlagStatus), (24 bytes).
    Removing stm32f10x_tim.o(i.TI1_Config), (128 bytes).
    Removing stm32f10x_tim.o(i.TI2_Config), (152 bytes).
    Removing stm32f10x_tim.o(i.TI3_Config), (144 bytes).
    Removing stm32f10x_tim.o(i.TI4_Config), (152 bytes).
    Removing stm32f10x_tim.o(i.TIM_ARRPreloadConfig), (24 bytes).
    Removing stm32f10x_tim.o(i.TIM_BDTRConfig), (32 bytes).
    Removing stm32f10x_tim.o(i.TIM_BDTRStructInit), (18 bytes).
    Removing stm32f10x_tim.o(i.TIM_CCPreloadControl), (24 bytes).
    Removing stm32f10x_tim.o(i.TIM_CCxCmd), (30 bytes).
    Removing stm32f10x_tim.o(i.TIM_CCxNCmd), (30 bytes).
    Removing stm32f10x_tim.o(i.TIM_ClearFlag), (6 bytes).
    Removing stm32f10x_tim.o(i.TIM_ClearOC1Ref), (18 bytes).
    Removing stm32f10x_tim.o(i.TIM_ClearOC2Ref), (24 bytes).
    Removing stm32f10x_tim.o(i.TIM_ClearOC3Ref), (18 bytes).
    Removing stm32f10x_tim.o(i.TIM_ClearOC4Ref), (24 bytes).
    Removing stm32f10x_tim.o(i.TIM_Cmd), (24 bytes).
    Removing stm32f10x_tim.o(i.TIM_CounterModeConfig), (18 bytes).
    Removing stm32f10x_tim.o(i.TIM_CtrlPWMOutputs), (30 bytes).
    Removing stm32f10x_tim.o(i.TIM_DMACmd), (18 bytes).
    Removing stm32f10x_tim.o(i.TIM_DMAConfig), (10 bytes).
    Removing stm32f10x_tim.o(i.TIM_DeInit), (488 bytes).
    Removing stm32f10x_tim.o(i.TIM_ETRClockMode1Config), (54 bytes).
    Removing stm32f10x_tim.o(i.TIM_ETRClockMode2Config), (32 bytes).
    Removing stm32f10x_tim.o(i.TIM_ETRConfig), (28 bytes).
    Removing stm32f10x_tim.o(i.TIM_EncoderInterfaceConfig), (66 bytes).
    Removing stm32f10x_tim.o(i.TIM_ForcedOC1Config), (18 bytes).
    Removing stm32f10x_tim.o(i.TIM_ForcedOC2Config), (26 bytes).
    Removing stm32f10x_tim.o(i.TIM_ForcedOC3Config), (18 bytes).
    Removing stm32f10x_tim.o(i.TIM_ForcedOC4Config), (26 bytes).
    Removing stm32f10x_tim.o(i.TIM_GenerateEvent), (4 bytes).
    Removing stm32f10x_tim.o(i.TIM_GetCapture1), (6 bytes).
    Removing stm32f10x_tim.o(i.TIM_GetCapture2), (6 bytes).
    Removing stm32f10x_tim.o(i.TIM_GetCapture3), (6 bytes).
    Removing stm32f10x_tim.o(i.TIM_GetCapture4), (8 bytes).
    Removing stm32f10x_tim.o(i.TIM_GetCounter), (6 bytes).
    Removing stm32f10x_tim.o(i.TIM_GetFlagStatus), (18 bytes).
    Removing stm32f10x_tim.o(i.TIM_GetPrescaler), (6 bytes).
    Removing stm32f10x_tim.o(i.TIM_ICInit), (172 bytes).
    Removing stm32f10x_tim.o(i.TIM_ICStructInit), (18 bytes).
    Removing stm32f10x_tim.o(i.TIM_ITConfig), (18 bytes).
    Removing stm32f10x_tim.o(i.TIM_ITRxExternalClockConfig), (24 bytes).
    Removing stm32f10x_tim.o(i.TIM_InternalClockConfig), (12 bytes).
    Removing stm32f10x_tim.o(i.TIM_OC1FastConfig), (18 bytes).
    Removing stm32f10x_tim.o(i.TIM_OC1Init), (152 bytes).
    Removing stm32f10x_tim.o(i.TIM_OC1NPolarityConfig), (18 bytes).
    Removing stm32f10x_tim.o(i.TIM_OC1PolarityConfig), (18 bytes).
    Removing stm32f10x_tim.o(i.TIM_OC1PreloadConfig), (18 bytes).
    Removing stm32f10x_tim.o(i.TIM_OC2FastConfig), (26 bytes).
    Removing stm32f10x_tim.o(i.TIM_OC2Init), (164 bytes).
    Removing stm32f10x_tim.o(i.TIM_OC2NPolarityConfig), (26 bytes).
    Removing stm32f10x_tim.o(i.TIM_OC2PolarityConfig), (26 bytes).
    Removing stm32f10x_tim.o(i.TIM_OC2PreloadConfig), (26 bytes).
    Removing stm32f10x_tim.o(i.TIM_OC3FastConfig), (18 bytes).
    Removing stm32f10x_tim.o(i.TIM_OC3Init), (160 bytes).
    Removing stm32f10x_tim.o(i.TIM_OC3NPolarityConfig), (26 bytes).
    Removing stm32f10x_tim.o(i.TIM_OC3PolarityConfig), (26 bytes).
    Removing stm32f10x_tim.o(i.TIM_OC3PreloadConfig), (18 bytes).
    Removing stm32f10x_tim.o(i.TIM_OC4FastConfig), (26 bytes).
    Removing stm32f10x_tim.o(i.TIM_OC4Init), (124 bytes).
    Removing stm32f10x_tim.o(i.TIM_OC4PolarityConfig), (26 bytes).
    Removing stm32f10x_tim.o(i.TIM_OC4PreloadConfig), (26 bytes).
    Removing stm32f10x_tim.o(i.TIM_OCStructInit), (20 bytes).
    Removing stm32f10x_tim.o(i.TIM_PWMIConfig), (124 bytes).
    Removing stm32f10x_tim.o(i.TIM_PrescalerConfig), (6 bytes).
    Removing stm32f10x_tim.o(i.TIM_SelectCCDMA), (24 bytes).
    Removing stm32f10x_tim.o(i.TIM_SelectCOM), (24 bytes).
    Removing stm32f10x_tim.o(i.TIM_SelectHallSensor), (24 bytes).
    Removing stm32f10x_tim.o(i.TIM_SelectInputTrigger), (18 bytes).
    Removing stm32f10x_tim.o(i.TIM_SelectMasterSlaveMode), (18 bytes).
    Removing stm32f10x_tim.o(i.TIM_SelectOCxM), (82 bytes).
    Removing stm32f10x_tim.o(i.TIM_SelectOnePulseMode), (18 bytes).
    Removing stm32f10x_tim.o(i.TIM_SelectOutputTrigger), (18 bytes).
    Removing stm32f10x_tim.o(i.TIM_SelectSlaveMode), (18 bytes).
    Removing stm32f10x_tim.o(i.TIM_SetAutoreload), (4 bytes).
    Removing stm32f10x_tim.o(i.TIM_SetClockDivision), (18 bytes).
    Removing stm32f10x_tim.o(i.TIM_SetCompare1), (4 bytes).
    Removing stm32f10x_tim.o(i.TIM_SetCompare2), (4 bytes).
    Removing stm32f10x_tim.o(i.TIM_SetCompare3), (4 bytes).
    Removing stm32f10x_tim.o(i.TIM_SetCompare4), (6 bytes).
    Removing stm32f10x_tim.o(i.TIM_SetCounter), (4 bytes).
    Removing stm32f10x_tim.o(i.TIM_SetIC1Prescaler), (18 bytes).
    Removing stm32f10x_tim.o(i.TIM_SetIC2Prescaler), (26 bytes).
    Removing stm32f10x_tim.o(i.TIM_SetIC3Prescaler), (18 bytes).
    Removing stm32f10x_tim.o(i.TIM_SetIC4Prescaler), (26 bytes).
    Removing stm32f10x_tim.o(i.TIM_TIxExternalClockConfig), (62 bytes).
    Removing stm32f10x_tim.o(i.TIM_TimeBaseInit), (164 bytes).
    Removing stm32f10x_tim.o(i.TIM_TimeBaseStructInit), (18 bytes).
    Removing stm32f10x_tim.o(i.TIM_UpdateDisableConfig), (24 bytes).
    Removing stm32f10x_tim.o(i.TIM_UpdateRequestConfig), (24 bytes).
    Removing stm32f10x_pwr.o(i.PWR_BackupAccessCmd), (12 bytes).
    Removing stm32f10x_pwr.o(i.PWR_ClearFlag), (20 bytes).
    Removing stm32f10x_pwr.o(i.PWR_DeInit), (22 bytes).
    Removing stm32f10x_pwr.o(i.PWR_EnterSTANDBYMode), (52 bytes).
    Removing stm32f10x_pwr.o(i.PWR_EnterSTOPMode), (64 bytes).
    Removing stm32f10x_pwr.o(i.PWR_GetFlagStatus), (24 bytes).
    Removing stm32f10x_pwr.o(i.PWR_PVDCmd), (12 bytes).
    Removing stm32f10x_pwr.o(i.PWR_PVDLevelConfig), (24 bytes).
    Removing stm32f10x_pwr.o(i.PWR_WakeUpPinCmd), (12 bytes).
    Removing stm32f10x_rtc.o(i.RTC_ClearFlag), (16 bytes).
    Removing stm32f10x_rtc.o(i.RTC_ClearITPendingBit), (16 bytes).
    Removing stm32f10x_rtc.o(i.RTC_EnterConfigMode), (20 bytes).
    Removing stm32f10x_rtc.o(i.RTC_ExitConfigMode), (20 bytes).
    Removing stm32f10x_rtc.o(i.RTC_GetCounter), (20 bytes).
    Removing stm32f10x_rtc.o(i.RTC_GetDivider), (24 bytes).
    Removing stm32f10x_rtc.o(i.RTC_GetFlagStatus), (24 bytes).
    Removing stm32f10x_rtc.o(i.RTC_GetITStatus), (36 bytes).
    Removing stm32f10x_rtc.o(i.RTC_ITConfig), (32 bytes).
    Removing stm32f10x_rtc.o(i.RTC_SetAlarm), (28 bytes).
    Removing stm32f10x_rtc.o(i.RTC_SetCounter), (28 bytes).
    Removing stm32f10x_rtc.o(i.RTC_SetPrescaler), (32 bytes).
    Removing stm32f10x_rtc.o(i.RTC_WaitForLastTask), (20 bytes).
    Removing stm32f10x_rtc.o(i.RTC_WaitForSynchro), (32 bytes).
    Removing os_dbg.o(.constdata), (2 bytes).
    Removing os_cpu_c.o(i.OSTaskReturnHook), (2 bytes).
    Removing os_core.o(i.OSEventNameGet), (104 bytes).
    Removing os_core.o(i.OSEventPendMulti), (680 bytes).
    Removing os_core.o(i.OSStatInit), (76 bytes).
    Removing os_core.o(i.OSVersion), (6 bytes).
    Removing os_core.o(i.OS_EventTaskWaitMulti), (148 bytes).
    Removing os_core.o(i.OS_MemCopy), (20 bytes).
    Removing os_core.o(i.OS_StrLen), (20 bytes).
    Removing os_mbox.o(i.OSMboxAccept), (38 bytes).
    Removing os_mbox.o(i.OSMboxCreate), (84 bytes).
    Removing os_mbox.o(i.OSMboxDel), (224 bytes).
    Removing os_mbox.o(i.OSMboxPend), (264 bytes).
    Removing os_mbox.o(i.OSMboxPendAbort), (128 bytes).
    Removing os_mbox.o(i.OSMboxPost), (80 bytes).
    Removing os_mbox.o(i.OSMboxPostOpt), (120 bytes).
    Removing os_mbox.o(i.OSMboxQuery), (76 bytes).
    Removing os_mem.o(i.OSMemCreate), (124 bytes).
    Removing os_mem.o(i.OSMemGet), (62 bytes).
    Removing os_mem.o(i.OSMemNameGet), (64 bytes).
    Removing os_mem.o(i.OSMemNameSet), (52 bytes).
    Removing os_mem.o(i.OSMemPut), (54 bytes).
    Removing os_mem.o(i.OSMemQuery), (52 bytes).
    Removing os_mutex.o(i.OSMutexAccept), (144 bytes).
    Removing os_mutex.o(i.OSMutexDel), (292 bytes).
    Removing os_mutex.o(i.OSMutexQuery), (112 bytes).
    Removing os_q.o(i.OSQAccept), (88 bytes).
    Removing os_q.o(i.OSQCreate), (160 bytes).
    Removing os_q.o(i.OSQDel), (260 bytes).
    Removing os_q.o(i.OSQFlush), (36 bytes).
    Removing os_q.o(i.OSQPend), (292 bytes).
    Removing os_q.o(i.OSQPendAbort), (128 bytes).
    Removing os_q.o(i.OSQPost), (114 bytes).
    Removing os_q.o(i.OSQPostFront), (116 bytes).
    Removing os_q.o(i.OSQPostOpt), (182 bytes).
    Removing os_q.o(i.OSQQuery), (98 bytes).
    Removing os_sem.o(i.OSSemAccept), (42 bytes).
    Removing os_sem.o(i.OSSemDel), (224 bytes).
    Removing os_sem.o(i.OSSemPendAbort), (128 bytes).
    Removing os_sem.o(i.OSSemQuery), (76 bytes).
    Removing os_sem.o(i.OSSemSet), (66 bytes).
    Removing os_task.o(i.OSTaskChangePrio), (416 bytes).
    Removing os_task.o(i.OSTaskCreate), (160 bytes).
    Removing os_task.o(i.OSTaskDelReq), (108 bytes).
    Removing os_task.o(i.OSTaskNameGet), (128 bytes).
    Removing os_task.o(i.OSTaskQuery), (92 bytes).
    Removing os_task.o(i.OSTaskRegGet), (68 bytes).
    Removing os_task.o(i.OSTaskRegSet), (72 bytes).
    Removing os_task.o(i.OS_TaskReturn), (24 bytes).
    Removing os_time.o(i.OSTimeDlyHMSM), (96 bytes).
    Removing os_time.o(i.OSTimeDlyResume), (188 bytes).
    Removing os_time.o(i.OSTimeGet), (28 bytes).
    Removing os_time.o(i.OSTimeSet), (28 bytes).
    Removing os_tmr.o(i.OSTmrCreate), (100 bytes).
    Removing os_tmr.o(i.OSTmrDel), (128 bytes).
    Removing os_tmr.o(i.OSTmrNameGet), (120 bytes).
    Removing os_tmr.o(i.OSTmrRemainGet), (172 bytes).
    Removing os_tmr.o(i.OSTmrStart), (132 bytes).
    Removing os_tmr.o(i.OSTmrStateGet), (92 bytes).
    Removing os_tmr.o(i.OSTmrStop), (184 bytes).
    Removing os_tmr.o(i.OSTmr_Alloc), (64 bytes).
    Removing os_tmr.o(i.OSTmr_Free), (76 bytes).

317 unused section(s) (total 17486 bytes) removed from the image.

==============================================================================

Image Symbol Table

    Local Symbols

    Symbol Name                              Value     Ov Type        Size  Object(Section)

    ../clib/angel/boardlib.s                 0x00000000   Number         0  boardshut.o ABSOLUTE
    ../clib/angel/boardlib.s                 0x00000000   Number         0  boardinit2.o ABSOLUTE
    ../clib/angel/boardlib.s                 0x00000000   Number         0  boardinit3.o ABSOLUTE
    ../clib/angel/boardlib.s                 0x00000000   Number         0  boardinit1.o ABSOLUTE
    ../clib/angel/handlers.s                 0x00000000   Number         0  __scatter_copy.o ABSOLUTE
    ../clib/angel/handlers.s                 0x00000000   Number         0  __scatter_zi.o ABSOLUTE
    ../clib/angel/kernel.s                   0x00000000   Number         0  rtentry.o ABSOLUTE
    ../clib/angel/kernel.s                   0x00000000   Number         0  rtexit2.o ABSOLUTE
    ../clib/angel/kernel.s                   0x00000000   Number         0  rtexit.o ABSOLUTE
    ../clib/angel/kernel.s                   0x00000000   Number         0  rtentry4.o ABSOLUTE
    ../clib/angel/kernel.s                   0x00000000   Number         0  rtentry2.o ABSOLUTE
    ../clib/angel/rt.s                       0x00000000   Number         0  rt_locale.o ABSOLUTE
    ../clib/angel/rt.s                       0x00000000   Number         0  rt_ctype_table.o ABSOLUTE
    ../clib/angel/rt.s                       0x00000000   Number         0  rt_raise.o ABSOLUTE
    ../clib/angel/rt.s                       0x00000000   Number         0  rt_locale_intlibspace.o ABSOLUTE
    ../clib/angel/scatter.s                  0x00000000   Number         0  __scatter.o ABSOLUTE
    ../clib/angel/startup.s                  0x00000000   Number         0  __main.o ABSOLUTE
    ../clib/angel/sys.s                      0x00000000   Number         0  use_no_semi.o ABSOLUTE
    ../clib/angel/sys.s                      0x00000000   Number         0  indicate_semi.o ABSOLUTE
    ../clib/angel/sys.s                      0x00000000   Number         0  libspace.o ABSOLUTE
    ../clib/angel/sys.s                      0x00000000   Number         0  sys_stackheap_outer.o ABSOLUTE
    ../clib/angel/sysapp.c                   0x00000000   Number         0  sys_wrch.o ABSOLUTE
    ../clib/angel/sysapp.c                   0x00000000   Number         0  sys_exit.o ABSOLUTE
    ../clib/angel/sysapp.c                   0x00000000   Number         0  sys_command.o ABSOLUTE
    ../clib/armsys.c                         0x00000000   Number         0  argv_veneer.o ABSOLUTE
    ../clib/armsys.c                         0x00000000   Number         0  argv_veneer.o ABSOLUTE
    ../clib/armsys.c                         0x00000000   Number         0  _get_argv_nomalloc.o ABSOLUTE
    ../clib/armsys.c                         0x00000000   Number         0  no_argv.o ABSOLUTE
    ../clib/bigflt.c                         0x00000000   Number         0  bigflt0.o ABSOLUTE
    ../clib/btod.s                           0x00000000   Number         0  btod.o ABSOLUTE
    ../clib/ctype.c                          0x00000000   Number         0  isspace.o ABSOLUTE
    ../clib/heapalloc.c                      0x00000000   Number         0  hrguard.o ABSOLUTE
    ../clib/heapaux.c                        0x00000000   Number         0  heapauxi.o ABSOLUTE
    ../clib/libinit.s                        0x00000000   Number         0  libinit.o ABSOLUTE
    ../clib/libinit.s                        0x00000000   Number         0  libinit2.o ABSOLUTE
    ../clib/libinit.s                        0x00000000   Number         0  libshutdown2.o ABSOLUTE
    ../clib/libinit.s                        0x00000000   Number         0  libshutdown.o ABSOLUTE
    ../clib/locale.s                         0x00000000   Number         0  lc_numeric_c.o ABSOLUTE
    ../clib/locale.s                         0x00000000   Number         0  lc_ctype_c.o ABSOLUTE
    ../clib/longlong.s                       0x00000000   Number         0  lludiv10.o ABSOLUTE
    ../clib/memcpset.s                       0x00000000   Number         0  strcmpv7m.o ABSOLUTE
    ../clib/memcpset.s                       0x00000000   Number         0  rt_memcpy_v6.o ABSOLUTE
    ../clib/memcpset.s                       0x00000000   Number         0  rt_memcpy_w.o ABSOLUTE
    ../clib/memcpset.s                       0x00000000   Number         0  rt_memclr.o ABSOLUTE
    ../clib/memcpset.s                       0x00000000   Number         0  rt_memclr_w.o ABSOLUTE
    ../clib/memcpset.s                       0x00000000   Number         0  strncpy.o ABSOLUTE
    ../clib/misc.s                           0x00000000   Number         0  printf_stubs.o ABSOLUTE
    ../clib/printf.c                         0x00000000   Number         0  _printf_intcommon.o ABSOLUTE
    ../clib/printf.c                         0x00000000   Number         0  _printf_fp_dec.o ABSOLUTE
    ../clib/printf.c                         0x00000000   Number         0  __printf_flags_ss.o ABSOLUTE
    ../clib/printf.c                         0x00000000   Number         0  __printf_ss.o ABSOLUTE
    ../clib/printf.c                         0x00000000   Number         0  __printf_flags.o ABSOLUTE
    ../clib/printf.c                         0x00000000   Number         0  _printf_char_common.o ABSOLUTE
    ../clib/printf.c                         0x00000000   Number         0  _printf_dec.o ABSOLUTE
    ../clib/printf.c                         0x00000000   Number         0  _sputc.o ABSOLUTE
    ../clib/printf.c                         0x00000000   Number         0  __2sprintf.o ABSOLUTE
    ../clib/printf.c                         0x00000000   Number         0  _printf_pad.o ABSOLUTE
    ../clib/printf.c                         0x00000000   Number         0  __printf_ss_wp.o ABSOLUTE
    ../clib/printf.c                         0x00000000   Number         0  __printf.o ABSOLUTE
    ../clib/printf.c                         0x00000000   Number         0  __printf_nopercent.o ABSOLUTE
    ../clib/printf.c                         0x00000000   Number         0  __printf_flags_ss_wp.o ABSOLUTE
    ../clib/printf.c                         0x00000000   Number         0  __printf_wp.o ABSOLUTE
    ../clib/printf.c                         0x00000000   Number         0  noretval__2sprintf.o ABSOLUTE
    ../clib/printf.c                         0x00000000   Number         0  __printf_flags_wp.o ABSOLUTE
    ../clib/printf.c                         0x00000000   Number         0  _printf_fp_infnan.o ABSOLUTE
    ../clib/printf_percent.s                 0x00000000   Number         0  _printf_percent_end.o ABSOLUTE
    ../clib/printf_percent.s                 0x00000000   Number         0  _printf_d.o ABSOLUTE
    ../clib/printf_percent.s                 0x00000000   Number         0  _printf_u.o ABSOLUTE
    ../clib/printf_percent.s                 0x00000000   Number         0  _printf_f.o ABSOLUTE
    ../clib/printf_percent.s                 0x00000000   Number         0  _printf_percent.o ABSOLUTE
    ../clib/scanf.c                          0x00000000   Number         0  _chval.o ABSOLUTE
    ../clib/scanf.c                          0x00000000   Number         0  scanf_char.o ABSOLUTE
    ../clib/scanf.c                          0x00000000   Number         0  _scanf_int.o ABSOLUTE
    ../clib/scanf.c                          0x00000000   Number         0  _scanf.o ABSOLUTE
    ../clib/scanf.c                          0x00000000   Number         0  _sgetc.o ABSOLUTE
    ../clib/scanf.c                          0x00000000   Number         0  __0sscanf.o ABSOLUTE
    ../clib/signal.c                         0x00000000   Number         0  defsig_rtmem_inner.o ABSOLUTE
    ../clib/signal.c                         0x00000000   Number         0  defsig_exit.o ABSOLUTE
    ../clib/signal.c                         0x00000000   Number         0  __raise.o ABSOLUTE
    ../clib/signal.c                         0x00000000   Number         0  defsig_cppl_inner.o ABSOLUTE
    ../clib/signal.c                         0x00000000   Number         0  defsig_segv_inner.o ABSOLUTE
    ../clib/signal.c                         0x00000000   Number         0  defsig_rtred_inner.o ABSOLUTE
    ../clib/signal.c                         0x00000000   Number         0  defsig_other.o ABSOLUTE
    ../clib/signal.c                         0x00000000   Number         0  defsig_fpe_inner.o ABSOLUTE
    ../clib/signal.c                         0x00000000   Number         0  defsig_rtmem_outer.o ABSOLUTE
    ../clib/signal.c                         0x00000000   Number         0  defsig_rtmem_formal.o ABSOLUTE
    ../clib/signal.c                         0x00000000   Number         0  defsig_pvfn_inner.o ABSOLUTE
    ../clib/signal.c                         0x00000000   Number         0  defsig_abrt_inner.o ABSOLUTE
    ../clib/signal.c                         0x00000000   Number         0  defsig_stak_inner.o ABSOLUTE
    ../clib/signal.c                         0x00000000   Number         0  defsig_general.o ABSOLUTE
    ../clib/signal.s                         0x00000000   Number         0  defsig.o ABSOLUTE
    ../clib/stdlib.c                         0x00000000   Number         0  exit.o ABSOLUTE
    ../clib/string.c                         0x00000000   Number         0  strcpy.o ABSOLUTE
    ../clib/string.c                         0x00000000   Number         0  memcmp.o ABSOLUTE
    ../fplib/d2f.s                           0x00000000   Number         0  d2f.o ABSOLUTE
    ../fplib/ddiv.s                          0x00000000   Number         0  ddiv.o ABSOLUTE
    ../fplib/dfix.s                          0x00000000   Number         0  dfix.o ABSOLUTE
    ../fplib/dfixu.s                         0x00000000   Number         0  dfixu.o ABSOLUTE
    ../fplib/dflt.s                          0x00000000   Number         0  dflt_clz.o ABSOLUTE
    ../fplib/dmul.s                          0x00000000   Number         0  dmul.o ABSOLUTE
    ../fplib/dnaninf.s                       0x00000000   Number         0  dnaninf.o ABSOLUTE
    ../fplib/dretinf.s                       0x00000000   Number         0  dretinf.o ABSOLUTE
    ../fplib/f2d.s                           0x00000000   Number         0  f2d.o ABSOLUTE
    ../fplib/faddsub.s                       0x00000000   Number         0  faddsub_clz.o ABSOLUTE
    ../fplib/fdiv.s                          0x00000000   Number         0  fdiv.o ABSOLUTE
    ../fplib/ffix.s                          0x00000000   Number         0  ffix.o ABSOLUTE
    ../fplib/ffixu.s                         0x00000000   Number         0  ffixu.o ABSOLUTE
    ../fplib/fflt.s                          0x00000000   Number         0  fflt_clz.o ABSOLUTE
    ../fplib/fmul.s                          0x00000000   Number         0  fmul.o ABSOLUTE
    ../fplib/fnaninf.s                       0x00000000   Number         0  fnaninf.o ABSOLUTE
    ../fplib/fpinit.s                        0x00000000   Number         0  fpinit.o ABSOLUTE
    ../fplib/fretinf.s                       0x00000000   Number         0  fretinf.o ABSOLUTE
    ../fplib/istatus.s                       0x00000000   Number         0  istatus.o ABSOLUTE
    ../fplib/printf1.s                       0x00000000   Number         0  printf1.o ABSOLUTE
    ../fplib/usenofp.s                       0x00000000   Number         0  usenofp.o ABSOLUTE
    ../mathlib/fpclassify.c                  0x00000000   Number         0  fpclassify.o ABSOLUTE
    ..\CH374\CH374Device.c                   0x00000000   Number         0  ch374device.o ABSOLUTE
    ..\CH374\CH374DeviceHid.c                0x00000000   Number         0  ch374devicehid.o ABSOLUTE
    ..\CH374\CH374Interface.c                0x00000000   Number         0  ch374interface.o ABSOLUTE
    ..\CMSIS\core_cm3.c                      0x00000000   Number         0  core_cm3.o ABSOLUTE
    ..\CMSIS\startup_stm32f10x_hd.s          0x00000000   Number         0  startup_stm32f10x_hd.o ABSOLUTE
    ..\CMSIS\system_stm32f10x.c              0x00000000   Number         0  system_stm32f10x.o ABSOLUTE
    ..\STM32F10x_StdPeriph_Driver\src\misc.c 0x00000000   Number         0  misc.o ABSOLUTE
    ..\STM32F10x_StdPeriph_Driver\src\stm32f10x_adc.c 0x00000000   Number         0  stm32f10x_adc.o ABSOLUTE
    ..\STM32F10x_StdPeriph_Driver\src\stm32f10x_exti.c 0x00000000   Number         0  stm32f10x_exti.o ABSOLUTE
    ..\STM32F10x_StdPeriph_Driver\src\stm32f10x_flash.c 0x00000000   Number         0  stm32f10x_flash.o ABSOLUTE
    ..\STM32F10x_StdPeriph_Driver\src\stm32f10x_gpio.c 0x00000000   Number         0  stm32f10x_gpio.o ABSOLUTE
    ..\STM32F10x_StdPeriph_Driver\src\stm32f10x_iwdg.c 0x00000000   Number         0  stm32f10x_iwdg.o ABSOLUTE
    ..\STM32F10x_StdPeriph_Driver\src\stm32f10x_pwr.c 0x00000000   Number         0  stm32f10x_pwr.o ABSOLUTE
    ..\STM32F10x_StdPeriph_Driver\src\stm32f10x_rcc.c 0x00000000   Number         0  stm32f10x_rcc.o ABSOLUTE
    ..\STM32F10x_StdPeriph_Driver\src\stm32f10x_rtc.c 0x00000000   Number         0  stm32f10x_rtc.o ABSOLUTE
    ..\STM32F10x_StdPeriph_Driver\src\stm32f10x_spi.c 0x00000000   Number         0  stm32f10x_spi.o ABSOLUTE
    ..\STM32F10x_StdPeriph_Driver\src\stm32f10x_tim.c 0x00000000   Number         0  stm32f10x_tim.o ABSOLUTE
    ..\USER\Adc.c                            0x00000000   Number         0  adc.o ABSOLUTE
    ..\USER\Aes.c                            0x00000000   Number         0  aes.o ABSOLUTE
    ..\USER\CRC16.c                          0x00000000   Number         0  crc16.o ABSOLUTE
    ..\USER\Delay.c                          0x00000000   Number         0  delay.o ABSOLUTE
    ..\USER\GuestRespond.c                   0x00000000   Number         0  guestrespond.o ABSOLUTE
    ..\USER\I2c.c                            0x00000000   Number         0  i2c.o ABSOLUTE
    ..\USER\Lcd.c                            0x00000000   Number         0  lcd.o ABSOLUTE
    ..\USER\LcdUtils.c                       0x00000000   Number         0  lcdutils.o ABSOLUTE
    ..\USER\Led.c                            0x00000000   Number         0  led.o ABSOLUTE
    ..\USER\MidFunction.c                    0x00000000   Number         0  midfunction.o ABSOLUTE
    ..\USER\Package.c                        0x00000000   Number         0  package.o ABSOLUTE
    ..\USER\Recorder.c                       0x00000000   Number         0  recorder.o ABSOLUTE
    ..\USER\Slip.c                           0x00000000   Number         0  slip.o ABSOLUTE
    ..\USER\SystemConfig.c                   0x00000000   Number         0  systemconfig.o ABSOLUTE
    ..\USER\Task.c                           0x00000000   Number         0  task.o ABSOLUTE
    ..\USER\Watchdog.c                       0x00000000   Number         0  watchdog.o ABSOLUTE
    ..\USER\main.c                           0x00000000   Number         0  main.o ABSOLUTE
    ..\USER\stm32f10x_it.c                   0x00000000   Number         0  stm32f10x_it.o ABSOLUTE
    ..\\CMSIS\\core_cm3.c                    0x00000000   Number         0  core_cm3.o ABSOLUTE
    ..\uCOS-II\Ports\os_cpu_a.asm            0x00000000   Number         0  os_cpu_a.o ABSOLUTE
    ..\uCOS-II\Ports\os_cpu_c.c              0x00000000   Number         0  os_cpu_c.o ABSOLUTE
    ..\uCOS-II\Ports\os_dbg.c                0x00000000   Number         0  os_dbg.o ABSOLUTE
    ..\uCOS-II\Source\os_core.c              0x00000000   Number         0  os_core.o ABSOLUTE
    ..\uCOS-II\Source\os_flag.c              0x00000000   Number         0  os_flag.o ABSOLUTE
    ..\uCOS-II\Source\os_mbox.c              0x00000000   Number         0  os_mbox.o ABSOLUTE
    ..\uCOS-II\Source\os_mem.c               0x00000000   Number         0  os_mem.o ABSOLUTE
    ..\uCOS-II\Source\os_mutex.c             0x00000000   Number         0  os_mutex.o ABSOLUTE
    ..\uCOS-II\Source\os_q.c                 0x00000000   Number         0  os_q.o ABSOLUTE
    ..\uCOS-II\Source\os_sem.c               0x00000000   Number         0  os_sem.o ABSOLUTE
    ..\uCOS-II\Source\os_task.c              0x00000000   Number         0  os_task.o ABSOLUTE
    ..\uCOS-II\Source\os_time.c              0x00000000   Number         0  os_time.o ABSOLUTE
    ..\uCOS-II\Source\os_tmr.c               0x00000000   Number         0  os_tmr.o ABSOLUTE
    ..\uCOS-II\Source\ucos_ii.c              0x00000000   Number         0  ucos_ii.o ABSOLUTE
    dc.s                                     0x00000000   Number         0  dc.o ABSOLUTE
    RESET                                    0x0800c800   Section      304  startup_stm32f10x_hd.o(RESET)
    !!!main                                  0x0800c930   Section        8  __main.o(!!!main)
    !!!scatter                               0x0800c938   Section       52  __scatter.o(!!!scatter)
    !!handler_copy                           0x0800c96c   Section       26  __scatter_copy.o(!!handler_copy)
    !!handler_zi                             0x0800c988   Section       28  __scatter_zi.o(!!handler_zi)
    .ARM.Collect$$_printf_percent$$00000000  0x0800c9a4   Section        0  _printf_percent.o(.ARM.Collect$$_printf_percent$$00000000)
    .ARM.Collect$$_printf_percent$$00000003  0x0800c9a4   Section        6  _printf_f.o(.ARM.Collect$$_printf_percent$$00000003)
    .ARM.Collect$$_printf_percent$$00000009  0x0800c9aa   Section        6  _printf_d.o(.ARM.Collect$$_printf_percent$$00000009)
    .ARM.Collect$$_printf_percent$$0000000A  0x0800c9b0   Section        6  _printf_u.o(.ARM.Collect$$_printf_percent$$0000000A)
    .ARM.Collect$$_printf_percent$$00000017  0x0800c9b6   Section        4  _printf_percent_end.o(.ARM.Collect$$_printf_percent$$00000017)
    .ARM.Collect$$libinit$$00000000          0x0800c9ba   Section        2  libinit.o(.ARM.Collect$$libinit$$00000000)
    .ARM.Collect$$libinit$$00000002          0x0800c9bc   Section        0  libinit2.o(.ARM.Collect$$libinit$$00000002)
    .ARM.Collect$$libinit$$00000008          0x0800c9bc   Section        0  libinit2.o(.ARM.Collect$$libinit$$00000008)
    .ARM.Collect$$libinit$$0000000A          0x0800c9bc   Section        0  libinit2.o(.ARM.Collect$$libinit$$0000000A)
    .ARM.Collect$$libinit$$0000000C          0x0800c9bc   Section        0  libinit2.o(.ARM.Collect$$libinit$$0000000C)
    .ARM.Collect$$libinit$$0000000D          0x0800c9bc   Section        6  libinit2.o(.ARM.Collect$$libinit$$0000000D)
    .ARM.Collect$$libinit$$0000000F          0x0800c9c2   Section        0  libinit2.o(.ARM.Collect$$libinit$$0000000F)
    .ARM.Collect$$libinit$$00000010          0x0800c9c2   Section       12  libinit2.o(.ARM.Collect$$libinit$$00000010)
    .ARM.Collect$$libinit$$00000011          0x0800c9ce   Section        0  libinit2.o(.ARM.Collect$$libinit$$00000011)
    .ARM.Collect$$libinit$$00000013          0x0800c9ce   Section        0  libinit2.o(.ARM.Collect$$libinit$$00000013)
    .ARM.Collect$$libinit$$00000014          0x0800c9ce   Section       10  libinit2.o(.ARM.Collect$$libinit$$00000014)
    .ARM.Collect$$libinit$$00000015          0x0800c9d8   Section        0  libinit2.o(.ARM.Collect$$libinit$$00000015)
    .ARM.Collect$$libinit$$00000017          0x0800c9d8   Section        0  libinit2.o(.ARM.Collect$$libinit$$00000017)
    .ARM.Collect$$libinit$$00000019          0x0800c9d8   Section        0  libinit2.o(.ARM.Collect$$libinit$$00000019)
    .ARM.Collect$$libinit$$0000001B          0x0800c9d8   Section        0  libinit2.o(.ARM.Collect$$libinit$$0000001B)
    .ARM.Collect$$libinit$$0000001D          0x0800c9d8   Section        0  libinit2.o(.ARM.Collect$$libinit$$0000001D)
    .ARM.Collect$$libinit$$0000001F          0x0800c9d8   Section        0  libinit2.o(.ARM.Collect$$libinit$$0000001F)
    .ARM.Collect$$libinit$$00000021          0x0800c9d8   Section        0  libinit2.o(.ARM.Collect$$libinit$$00000021)
    .ARM.Collect$$libinit$$00000023          0x0800c9d8   Section        0  libinit2.o(.ARM.Collect$$libinit$$00000023)
    .ARM.Collect$$libinit$$0000002A          0x0800c9d8   Section        0  libinit2.o(.ARM.Collect$$libinit$$0000002A)
    .ARM.Collect$$libinit$$0000002C          0x0800c9d8   Section        0  libinit2.o(.ARM.Collect$$libinit$$0000002C)
    .ARM.Collect$$libinit$$0000002E          0x0800c9d8   Section        0  libinit2.o(.ARM.Collect$$libinit$$0000002E)
    .ARM.Collect$$libinit$$00000030          0x0800c9d8   Section        0  libinit2.o(.ARM.Collect$$libinit$$00000030)
    .ARM.Collect$$libinit$$00000031          0x0800c9d8   Section        2  libinit2.o(.ARM.Collect$$libinit$$00000031)
    .ARM.Collect$$libshutdown$$00000000      0x0800c9da   Section        2  libshutdown.o(.ARM.Collect$$libshutdown$$00000000)
    .ARM.Collect$$libshutdown$$00000003      0x0800c9dc   Section        0  libshutdown2.o(.ARM.Collect$$libshutdown$$00000003)
    .ARM.Collect$$libshutdown$$00000006      0x0800c9dc   Section        0  libshutdown2.o(.ARM.Collect$$libshutdown$$00000006)
    .ARM.Collect$$libshutdown$$00000009      0x0800c9dc   Section        0  libshutdown2.o(.ARM.Collect$$libshutdown$$00000009)
    .ARM.Collect$$libshutdown$$0000000B      0x0800c9dc   Section        0  libshutdown2.o(.ARM.Collect$$libshutdown$$0000000B)
    .ARM.Collect$$libshutdown$$0000000E      0x0800c9dc   Section        0  libshutdown2.o(.ARM.Collect$$libshutdown$$0000000E)
    .ARM.Collect$$libshutdown$$0000000F      0x0800c9dc   Section        2  libshutdown2.o(.ARM.Collect$$libshutdown$$0000000F)
    .ARM.Collect$$rtentry$$00000000          0x0800c9de   Section        0  rtentry.o(.ARM.Collect$$rtentry$$00000000)
    .ARM.Collect$$rtentry$$00000002          0x0800c9de   Section        0  rtentry2.o(.ARM.Collect$$rtentry$$00000002)
    .ARM.Collect$$rtentry$$00000004          0x0800c9de   Section        6  rtentry4.o(.ARM.Collect$$rtentry$$00000004)
    .ARM.Collect$$rtentry$$00000009          0x0800c9e4   Section        0  rtentry2.o(.ARM.Collect$$rtentry$$00000009)
    .ARM.Collect$$rtentry$$0000000A          0x0800c9e4   Section        4  rtentry2.o(.ARM.Collect$$rtentry$$0000000A)
    .ARM.Collect$$rtentry$$0000000C          0x0800c9e8   Section        0  rtentry2.o(.ARM.Collect$$rtentry$$0000000C)
    .ARM.Collect$$rtentry$$0000000D          0x0800c9e8   Section        8  rtentry2.o(.ARM.Collect$$rtentry$$0000000D)
    .ARM.Collect$$rtexit$$00000000           0x0800c9f0   Section        2  rtexit.o(.ARM.Collect$$rtexit$$00000000)
    .ARM.Collect$$rtexit$$00000002           0x0800c9f2   Section        0  rtexit2.o(.ARM.Collect$$rtexit$$00000002)
    .ARM.Collect$$rtexit$$00000003           0x0800c9f2   Section        4  rtexit2.o(.ARM.Collect$$rtexit$$00000003)
    .ARM.Collect$$rtexit$$00000004           0x0800c9f6   Section        6  rtexit2.o(.ARM.Collect$$rtexit$$00000004)
    .text                                    0x0800c9fc   Section       64  startup_stm32f10x_hd.o(.text)
    .text                                    0x0800ca3c   Section      164  os_cpu_a.o(.text)
    .text                                    0x0800cae0   Section        0  __2sprintf.o(.text)
    .text                                    0x0800cb0c   Section        0  _printf_pad.o(.text)
    .text                                    0x0800cb60   Section        0  _printf_dec.o(.text)
    .text                                    0x0800cbd8   Section        0  __printf_flags_wp.o(.text)
    .text                                    0x0800cd14   Section        0  __0sscanf.o(.text)
    .text                                    0x0800cd50   Section        0  _scanf_int.o(.text)
    .text                                    0x0800cea0   Section        0  memcmp.o(.text)
    .text                                    0x0800cef8   Section        0  strcpy.o(.text)
    .text                                    0x0800cf40   Section      138  rt_memcpy_v6.o(.text)
    .text                                    0x0800cfca   Section      100  rt_memcpy_w.o(.text)
    .text                                    0x0800d02e   Section       68  rt_memclr.o(.text)
    .text                                    0x0800d072   Section       78  rt_memclr_w.o(.text)
    .text                                    0x0800d0c0   Section       86  strncpy.o(.text)
    .text                                    0x0800d116   Section        0  heapauxi.o(.text)
    .text                                    0x0800d11c   Section        0  _printf_intcommon.o(.text)
    .text                                    0x0800d1d4   Section        0  _printf_fp_dec.o(.text)
    _fp_digits                               0x0800d1d7   Thumb Code   426  _printf_fp_dec.o(.text)
    .text                                    0x0800d5f4   Section        0  _printf_char_common.o(.text)
    _printf_input_char                       0x0800d5f5   Thumb Code    10  _printf_char_common.o(.text)
    .text                                    0x0800d624   Section        0  _sputc.o(.text)
    .text                                    0x0800d62e   Section        0  _chval.o(.text)
    .text                                    0x0800d64c   Section        0  scanf_char.o(.text)
    _scanf_char_input                        0x0800d64d   Thumb Code    12  scanf_char.o(.text)
    .text                                    0x0800d678   Section        0  _sgetc.o(.text)
    .text                                    0x0800d6b8   Section        8  rt_locale_intlibspace.o(.text)
    .text                                    0x0800d6c0   Section      138  lludiv10.o(.text)
    .text                                    0x0800d74a   Section        0  isspace.o(.text)
    .text                                    0x0800d75c   Section        0  _printf_fp_infnan.o(.text)
    .text                                    0x0800d7dc   Section        0  _scanf.o(.text)
    .text                                    0x0800db4c   Section        0  bigflt0.o(.text)
    .text                                    0x0800dc30   Section        8  libspace.o(.text)
    .text                                    0x0800dc38   Section       74  sys_stackheap_outer.o(.text)
    .text                                    0x0800dc84   Section       16  rt_ctype_table.o(.text)
    .text                                    0x0800dc94   Section        0  exit.o(.text)
    .text                                    0x0800dca0   Section      128  strcmpv7m.o(.text)
    .text                                    0x0800dd20   Section        0  sys_exit.o(.text)
    .text                                    0x0800dd2c   Section        2  use_no_semi.o(.text)
    .text                                    0x0800dd2e   Section        0  indicate_semi.o(.text)
    CL$$btod_d2e                             0x0800dd2e   Section       62  btod.o(CL$$btod_d2e)
    CL$$btod_d2e_denorm_low                  0x0800dd6c   Section       70  btod.o(CL$$btod_d2e_denorm_low)
    CL$$btod_d2e_norm_op1                    0x0800ddb2   Section       96  btod.o(CL$$btod_d2e_norm_op1)
    CL$$btod_div_common                      0x0800de12   Section      824  btod.o(CL$$btod_div_common)
    CL$$btod_e2e                             0x0800e14a   Section      198  btod.o(CL$$btod_e2e)
    CL$$btod_ediv                            0x0800e210   Section       40  btod.o(CL$$btod_ediv)
    CL$$btod_emul                            0x0800e238   Section       40  btod.o(CL$$btod_emul)
    CL$$btod_mult_common                     0x0800e260   Section      580  btod.o(CL$$btod_mult_common)
    i.ADC_ClearFlag                          0x0800e4a4   Section        0  stm32f10x_adc.o(i.ADC_ClearFlag)
    i.ADC_Cmd                                0x0800e4aa   Section        0  stm32f10x_adc.o(i.ADC_Cmd)
    i.ADC_GetCalibrationStatus               0x0800e4c0   Section        0  stm32f10x_adc.o(i.ADC_GetCalibrationStatus)
    i.ADC_GetConversionValue                 0x0800e4d4   Section        0  stm32f10x_adc.o(i.ADC_GetConversionValue)
    i.ADC_GetFlagStatus                      0x0800e4dc   Section        0  stm32f10x_adc.o(i.ADC_GetFlagStatus)
    i.ADC_GetResetCalibrationStatus          0x0800e4ee   Section        0  stm32f10x_adc.o(i.ADC_GetResetCalibrationStatus)
    i.ADC_Init                               0x0800e504   Section        0  stm32f10x_adc.o(i.ADC_Init)
    i.ADC_RegularChannelConfig               0x0800e554   Section        0  stm32f10x_adc.o(i.ADC_RegularChannelConfig)
    i.ADC_ResetCalibration                   0x0800e60c   Section        0  stm32f10x_adc.o(i.ADC_ResetCalibration)
    i.ADC_SoftwareStartConvCmd               0x0800e616   Section        0  stm32f10x_adc.o(i.ADC_SoftwareStartConvCmd)
    i.ADC_StartCalibration                   0x0800e62c   Section        0  stm32f10x_adc.o(i.ADC_StartCalibration)
    i.Adc2VoltageOrCurrent                   0x0800e638   Section        0  adc.o(i.Adc2VoltageOrCurrent)
    i.AdcConfig                              0x0800e6dc   Section        0  adc.o(i.AdcConfig)
    i.AdcLock                                0x0800e780   Section        0  adc.o(i.AdcLock)
    AdcLock                                  0x0800e781   Thumb Code    34  adc.o(i.AdcLock)
    i.AdcUnlock                              0x0800e7a8   Section        0  adc.o(i.AdcUnlock)
    AdcUnlock                                0x0800e7a9   Thumb Code    12  adc.o(i.AdcUnlock)
    i.AppLEDTask                             0x0800e7b8   Section        0  task.o(i.AppLEDTask)
    i.AppOLEDTask                            0x0800e7d8   Section        0  task.o(i.AppOLEDTask)
    i.AppPowerOffTask                        0x0800e7e6   Section        0  task.o(i.AppPowerOffTask)
    i.AppQueueTask                           0x0800e7f4   Section        0  task.o(i.AppQueueTask)
    i.AppStartUpTask                         0x0800e80a   Section        0  task.o(i.AppStartUpTask)
    i.AppTestTask                            0x0800e83c   Section        0  task.o(i.AppTestTask)
    i.AppUsbTask                             0x0800e870   Section        0  task.o(i.AppUsbTask)
    i.AutoPowerOff                           0x0800e8e0   Section        0  midfunction.o(i.AutoPowerOff)
    i.BusFault_Handler                       0x0800e8fe   Section        0  stm32f10x_it.o(i.BusFault_Handler)
    i.BusIsShort                             0x0800e902   Section        0  adc.o(i.BusIsShort)
    i.BusLeakIsShort                         0x0800e91e   Section        0  adc.o(i.BusLeakIsShort)
    i.CH374DeviceInit                        0x0800e950   Section        0  ch374device.o(i.CH374DeviceInit)
    i.CH374DeviceInterrupt                   0x0800ea18   Section        0  ch374device.o(i.CH374DeviceInterrupt)
    i.CH374InterruptCallBack                 0x0800ee68   Section        0  ch374devicehid.o(i.CH374InterruptCallBack)
    i.CH374SpiConfig                         0x0800ee84   Section        0  ch374interface.o(i.CH374SpiConfig)
    i.CH374SpiSendByte                       0x0800ef28   Section        0  ch374interface.o(i.CH374SpiSendByte)
    i.CH374WriteBlockZero                    0x0800ef60   Section        0  ch374interface.o(i.CH374WriteBlockZero)
    i.Ch374HardWareConfig                    0x0800efa0   Section        0  ch374interface.o(i.Ch374HardWareConfig)
    i.DebugMon_Handler                       0x0800f050   Section        0  stm32f10x_it.o(i.DebugMon_Handler)
    i.DeviceHidOutCallBack                   0x0800f054   Section        0  ch374devicehid.o(i.DeviceHidOutCallBack)
    i.DeviceHidSendData                      0x0800f0b4   Section        0  ch374devicehid.o(i.DeviceHidSendData)
    i.DeviceHidSendFinishCallBack            0x0800f158   Section        0  ch374devicehid.o(i.DeviceHidSendFinishCallBack)
    i.EXTI9_5_IRQHandler                     0x0800f164   Section        0  stm32f10x_it.o(i.EXTI9_5_IRQHandler)
    i.EXTI_ClearITPendingBit                 0x0800f184   Section        0  stm32f10x_exti.o(i.EXTI_ClearITPendingBit)
    i.EXTI_GetITStatus                       0x0800f190   Section        0  stm32f10x_exti.o(i.EXTI_GetITStatus)
    i.EXTI_Init                              0x0800f1b8   Section        0  stm32f10x_exti.o(i.EXTI_Init)
    i.EliminateBusCurrentErr                 0x0800f24c   Section        0  adc.o(i.EliminateBusCurrentErr)
    i.FLASH_ClearFlag                        0x0800f29c   Section        0  stm32f10x_flash.o(i.FLASH_ClearFlag)
    i.FLASH_ErasePage                        0x0800f2a8   Section        0  stm32f10x_flash.o(i.FLASH_ErasePage)
    i.FLASH_GetBank1Status                   0x0800f2f4   Section        0  stm32f10x_flash.o(i.FLASH_GetBank1Status)
    i.FLASH_Lock                             0x0800f328   Section        0  stm32f10x_flash.o(i.FLASH_Lock)
    i.FLASH_ProgramHalfWord                  0x0800f33c   Section        0  stm32f10x_flash.o(i.FLASH_ProgramHalfWord)
    i.FLASH_Unlock                           0x0800f37c   Section        0  stm32f10x_flash.o(i.FLASH_Unlock)
    i.FLASH_WaitForLastOperation             0x0800f394   Section        0  stm32f10x_flash.o(i.FLASH_WaitForLastOperation)
    i.GPIO_EXTILineConfig                    0x0800f3bc   Section        0  stm32f10x_gpio.o(i.GPIO_EXTILineConfig)
    i.GPIO_Init                              0x0800f3fc   Section        0  stm32f10x_gpio.o(i.GPIO_Init)
    i.GPIO_PinRemapConfig                    0x0800f510   Section        0  stm32f10x_gpio.o(i.GPIO_PinRemapConfig)
    i.GPIO_ReadInputDataBit                  0x0800f5a0   Section        0  stm32f10x_gpio.o(i.GPIO_ReadInputDataBit)
    i.GPIO_ResetBits                         0x0800f5b2   Section        0  stm32f10x_gpio.o(i.GPIO_ResetBits)
    i.GPIO_SetBits                           0x0800f5b6   Section        0  stm32f10x_gpio.o(i.GPIO_SetBits)
    i.GetAdcValue                            0x0800f5bc   Section        0  adc.o(i.GetAdcValue)
    i.GetBatteryVoltage                      0x0800f68c   Section        0  adc.o(i.GetBatteryVoltage)
    i.GetBufferStringLenght                  0x0800f6c8   Section        0  guestrespond.o(i.GetBufferStringLenght)
    i.GetBusCurrent                          0x0800f6e0   Section        0  adc.o(i.GetBusCurrent)
    i.GetBusLeakCurrent                      0x0800f764   Section        0  adc.o(i.GetBusLeakCurrent)
    i.GetBusVoltage                          0x0800f84c   Section        0  adc.o(i.GetBusVoltage)
    i.GetBusVoltageFromAdcValue              0x0800f8fc   Section        0  adc.o(i.GetBusVoltageFromAdcValue)
    i.GetCrc16Value                          0x0800f9dc   Section        0  crc16.o(i.GetCrc16Value)
    i.GetDecValueFromSeparator               0x0800fa24   Section        0  guestrespond.o(i.GetDecValueFromSeparator)
    i.GetGeneralRespondData                  0x0800fa98   Section        0  guestrespond.o(i.GetGeneralRespondData)
    i.GetLinABAdcValue                       0x0800fae0   Section        0  adc.o(i.GetLinABAdcValue)
    i.GpioConfig                             0x0800fb08   Section        0  systemconfig.o(i.GpioConfig)
    i.GuestRespond                           0x0800fb9c   Section        0  guestrespond.o(i.GuestRespond)
    i.HardFault_Handler                      0x08010558   Section        0  stm32f10x_it.o(i.HardFault_Handler)
    i.I2C_Delay                              0x0801055c   Section        0  i2c.o(i.I2C_Delay)
    i.I2C_FromBusyToIdle                     0x08010570   Section        0  i2c.o(i.I2C_FromBusyToIdle)
    i.I2C_GPIO_Config                        0x080105ac   Section        0  i2c.o(i.I2C_GPIO_Config)
    i.I2C_SendByte                           0x080105fc   Section        0  i2c.o(i.I2C_SendByte)
    i.I2C_Start                              0x0801066c   Section        0  i2c.o(i.I2C_Start)
    i.I2C_Stop                               0x080106e8   Section        0  i2c.o(i.I2C_Stop)
    i.I2C_WaitAck                            0x08010738   Section        0  i2c.o(i.I2C_WaitAck)
    i.I2C_WriteByte                          0x0801079c   Section        0  i2c.o(i.I2C_WriteByte)
    i.I2C_WriteData                          0x080107fa   Section        0  i2c.o(i.I2C_WriteData)
    i.IWDG_Enable                            0x08010864   Section        0  stm32f10x_iwdg.o(i.IWDG_Enable)
    i.IWDG_ReloadCounter                     0x08010874   Section        0  stm32f10x_iwdg.o(i.IWDG_ReloadCounter)
    i.IWDG_SetPrescaler                      0x08010884   Section        0  stm32f10x_iwdg.o(i.IWDG_SetPrescaler)
    i.IWDG_SetReload                         0x08010890   Section        0  stm32f10x_iwdg.o(i.IWDG_SetReload)
    i.IWDG_WriteAccessCmd                    0x0801089c   Section        0  stm32f10x_iwdg.o(i.IWDG_WriteAccessCmd)
    i.LEDConfig                              0x080108a8   Section        0  led.o(i.LEDConfig)
    i.LcdBufferClear                         0x08010914   Section        0  lcdutils.o(i.LcdBufferClear)
    i.LcdBufferPaint                         0x08010944   Section        0  lcdutils.o(i.LcdBufferPaint)
    i.LcdCheckCharHz                         0x08010970   Section        0  lcdutils.o(i.LcdCheckCharHz)
    i.LcdClear                               0x08010a30   Section        0  lcd.o(i.LcdClear)
    i.LcdDrawOne                             0x08010a68   Section        0  lcdutils.o(i.LcdDrawOne)
    i.LcdDrawPoint                           0x08010b28   Section        0  lcdutils.o(i.LcdDrawPoint)
    i.LcdDrawString                          0x08010bc4   Section        0  lcdutils.o(i.LcdDrawString)
    i.LcdDrawStringCenter                    0x08010c20   Section        0  lcdutils.o(i.LcdDrawStringCenter)
    i.LcdDrawStringHCenter                   0x08010c44   Section        0  lcdutils.o(i.LcdDrawStringHCenter)
    i.LcdInit                                0x08010ca0   Section        0  lcd.o(i.LcdInit)
    i.LcdSetFont                             0x08010d58   Section        0  lcdutils.o(i.LcdSetFont)
    i.LcdSetFontState                        0x08010da4   Section        0  lcdutils.o(i.LcdSetFontState)
    i.LcdSetPos                              0x08010db0   Section        0  lcd.o(i.LcdSetPos)
    i.LcdShowStr2Center                      0x08010dd4   Section        0  lcdutils.o(i.LcdShowStr2Center)
    i.LcdShowStrCenter                       0x08010e14   Section        0  lcdutils.o(i.LcdShowStrCenter)
    i.LcdWriteCommand                        0x08010e28   Section        0  lcd.o(i.LcdWriteCommand)
    i.LcdWriteData                           0x08010e38   Section        0  lcd.o(i.LcdWriteData)
    i.LcdWriteDataBytes                      0x08010e48   Section        0  lcd.o(i.LcdWriteDataBytes)
    i.MemManage_Handler                      0x08010e5c   Section        0  stm32f10x_it.o(i.MemManage_Handler)
    i.NMI_Handler                            0x08010e60   Section        0  stm32f10x_it.o(i.NMI_Handler)
    i.NVIC_Init                              0x08010e64   Section        0  misc.o(i.NVIC_Init)
    i.NVIC_SetVectorTable                    0x08010ed8   Section        0  misc.o(i.NVIC_SetVectorTable)
    i.OLEDDisplay                            0x08010eec   Section        0  midfunction.o(i.OLEDDisplay)
    i.OSEventNameSet                         0x080110a8   Section        0  os_core.o(i.OSEventNameSet)
    i.OSInit                                 0x08011100   Section        0  os_core.o(i.OSInit)
    i.OSInitHookBegin                        0x08011130   Section        0  os_cpu_c.o(i.OSInitHookBegin)
    i.OSInitHookEnd                          0x0801113c   Section        0  os_cpu_c.o(i.OSInitHookEnd)
    i.OSIntEnter                             0x08011140   Section        0  os_core.o(i.OSIntEnter)
    i.OSIntExit                              0x08011164   Section        0  os_core.o(i.OSIntExit)
    i.OSMutexCreate                          0x080111f4   Section        0  os_mutex.o(i.OSMutexCreate)
    i.OSMutexPend                            0x08011290   Section        0  os_mutex.o(i.OSMutexPend)
    i.OSMutexPost                            0x080114e0   Section        0  os_mutex.o(i.OSMutexPost)
    i.OSMutex_RdyAtPrio                      0x080115a8   Section        0  os_mutex.o(i.OSMutex_RdyAtPrio)
    OSMutex_RdyAtPrio                        0x080115a9   Thumb Code   116  os_mutex.o(i.OSMutex_RdyAtPrio)
    i.OSSchedLock                            0x0801162c   Section        0  os_core.o(i.OSSchedLock)
    i.OSSchedUnlock                          0x0801166c   Section        0  os_core.o(i.OSSchedUnlock)
    i.OSSemCreate                            0x080116cc   Section        0  os_sem.o(i.OSSemCreate)
    i.OSSemPend                              0x08011720   Section        0  os_sem.o(i.OSSemPend)
    i.OSSemPost                              0x08011810   Section        0  os_sem.o(i.OSSemPost)
    i.OSStart                                0x08011868   Section        0  os_core.o(i.OSStart)
    i.OSTCBInitHook                          0x080118b0   Section        0  os_cpu_c.o(i.OSTCBInitHook)
    i.OSTaskCreateExt                        0x080118b4   Section        0  os_task.o(i.OSTaskCreateExt)
    i.OSTaskCreateHook                       0x0801196c   Section        0  os_cpu_c.o(i.OSTaskCreateHook)
    i.OSTaskDel                              0x08011970   Section        0  os_task.o(i.OSTaskDel)
    i.OSTaskDelHook                          0x08011ac0   Section        0  os_cpu_c.o(i.OSTaskDelHook)
    i.OSTaskIdleHook                         0x08011ac2   Section        0  os_cpu_c.o(i.OSTaskIdleHook)
    i.OSTaskNameSet                          0x08011ac4   Section        0  os_task.o(i.OSTaskNameSet)
    i.OSTaskResume                           0x08011b34   Section        0  os_task.o(i.OSTaskResume)
    i.OSTaskStatHook                         0x08011be4   Section        0  os_cpu_c.o(i.OSTaskStatHook)
    i.OSTaskStkChk                           0x08011be8   Section        0  os_task.o(i.OSTaskStkChk)
    i.OSTaskStkInit                          0x08011c74   Section        0  os_cpu_c.o(i.OSTaskStkInit)
    i.OSTaskSuspend                          0x08011d10   Section        0  os_task.o(i.OSTaskSuspend)
    i.OSTaskSwHook                           0x08011db8   Section        0  os_cpu_c.o(i.OSTaskSwHook)
    i.OSTimeDly                              0x08011dbc   Section        0  os_time.o(i.OSTimeDly)
    i.OSTimeTick                             0x08011e34   Section        0  os_core.o(i.OSTimeTick)
    i.OSTimeTickHook                         0x08011f28   Section        0  os_cpu_c.o(i.OSTimeTickHook)
    i.OSTmrSignal                            0x08011f4c   Section        0  os_tmr.o(i.OSTmrSignal)
    i.OSTmr_Init                             0x08011f60   Section        0  os_tmr.o(i.OSTmr_Init)
    i.OSTmr_InitTask                         0x08012054   Section        0  os_tmr.o(i.OSTmr_InitTask)
    OSTmr_InitTask                           0x08012055   Thumb Code    50  os_tmr.o(i.OSTmr_InitTask)
    i.OSTmr_Link                             0x080120a4   Section        0  os_tmr.o(i.OSTmr_Link)
    OSTmr_Link                               0x080120a5   Thumb Code   100  os_tmr.o(i.OSTmr_Link)
    i.OSTmr_Task                             0x08012110   Section        0  os_tmr.o(i.OSTmr_Task)
    OSTmr_Task                               0x08012111   Thumb Code   114  os_tmr.o(i.OSTmr_Task)
    i.OSTmr_Unlink                           0x08012190   Section        0  os_tmr.o(i.OSTmr_Unlink)
    OSTmr_Unlink                             0x08012191   Thumb Code    62  os_tmr.o(i.OSTmr_Unlink)
    i.OS_Dummy                               0x080121d4   Section        0  os_core.o(i.OS_Dummy)
    i.OS_EventTaskRdy                        0x080121d8   Section        0  os_core.o(i.OS_EventTaskRdy)
    i.OS_EventTaskRemove                     0x0801226c   Section        0  os_core.o(i.OS_EventTaskRemove)
    i.OS_EventTaskRemoveMulti                0x08012296   Section        0  os_core.o(i.OS_EventTaskRemoveMulti)
    i.OS_EventTaskWait                       0x080122d4   Section        0  os_core.o(i.OS_EventTaskWait)
    i.OS_EventWaitListInit                   0x08012350   Section        0  os_core.o(i.OS_EventWaitListInit)
    i.OS_InitEventList                       0x0801236c   Section        0  os_core.o(i.OS_InitEventList)
    OS_InitEventList                         0x0801236d   Thumb Code    82  os_core.o(i.OS_InitEventList)
    i.OS_InitMisc                            0x080123cc   Section        0  os_core.o(i.OS_InitMisc)
    OS_InitMisc                              0x080123cd   Thumb Code    44  os_core.o(i.OS_InitMisc)
    i.OS_InitRdyList                         0x08012420   Section        0  os_core.o(i.OS_InitRdyList)
    OS_InitRdyList                           0x08012421   Thumb Code    44  os_core.o(i.OS_InitRdyList)
    i.OS_InitTCBList                         0x08012464   Section        0  os_core.o(i.OS_InitTCBList)
    OS_InitTCBList                           0x08012465   Thumb Code    94  os_core.o(i.OS_InitTCBList)
    i.OS_InitTaskIdle                        0x080124d8   Section        0  os_core.o(i.OS_InitTaskIdle)
    OS_InitTaskIdle                          0x080124d9   Thumb Code    50  os_core.o(i.OS_InitTaskIdle)
    i.OS_InitTaskStat                        0x08012528   Section        0  os_core.o(i.OS_InitTaskStat)
    OS_InitTaskStat                          0x08012529   Thumb Code    50  os_core.o(i.OS_InitTaskStat)
    i.OS_MemClr                              0x08012578   Section        0  os_core.o(i.OS_MemClr)
    i.OS_MemInit                             0x0801258c   Section        0  os_mem.o(i.OS_MemInit)
    i.OS_QInit                               0x080125e4   Section        0  os_q.o(i.OS_QInit)
    i.OS_Sched                               0x08012634   Section        0  os_core.o(i.OS_Sched)
    i.OS_SchedNew                            0x080126a8   Section        0  os_core.o(i.OS_SchedNew)
    OS_SchedNew                              0x080126a9   Thumb Code    26  os_core.o(i.OS_SchedNew)
    i.OS_TCBInit                             0x080126d4   Section        0  os_core.o(i.OS_TCBInit)
    i.OS_TaskIdle                            0x08012810   Section        0  os_core.o(i.OS_TaskIdle)
    i.OS_TaskStat                            0x08012838   Section        0  os_core.o(i.OS_TaskStat)
    i.OS_TaskStatStkChk                      0x080128c0   Section        0  os_core.o(i.OS_TaskStatStkChk)
    i.OS_TaskStkClr                          0x080128fc   Section        0  os_task.o(i.OS_TaskStkClr)
    i.Pack                                   0x08012918   Section        0  package.o(i.Pack)
    i.PackageKeyInit                         0x080129cc   Section        0  package.o(i.PackageKeyInit)
    i.Queue_Init                             0x080129f4   Section        0  midfunction.o(i.Queue_Init)
    i.Queue_push                             0x08012a10   Section        0  midfunction.o(i.Queue_push)
    i.RCC_ADCCLKConfig                       0x08012af0   Section        0  stm32f10x_rcc.o(i.RCC_ADCCLKConfig)
    i.RCC_APB1PeriphClockCmd                 0x08012b08   Section        0  stm32f10x_rcc.o(i.RCC_APB1PeriphClockCmd)
    i.RCC_APB2PeriphClockCmd                 0x08012b28   Section        0  stm32f10x_rcc.o(i.RCC_APB2PeriphClockCmd)
    i.RCC_GetClocksFreq                      0x08012b48   Section        0  stm32f10x_rcc.o(i.RCC_GetClocksFreq)
    i.Read374Block                           0x08012c24   Section        0  ch374interface.o(i.Read374Block)
    i.Read374Byte                            0x08012c68   Section        0  ch374interface.o(i.Read374Byte)
    i.ReadFactoryConfigParam                 0x08012c9c   Section        0  recorder.o(i.ReadFactoryConfigParam)
    i.ReadFlashDataWithCRC16                 0x08012d2c   Section        0  recorder.o(i.ReadFlashDataWithCRC16)
    i.SPI_Cmd                                0x08012db4   Section        0  stm32f10x_spi.o(i.SPI_Cmd)
    i.SPI_I2S_GetFlagStatus                  0x08012dcc   Section        0  stm32f10x_spi.o(i.SPI_I2S_GetFlagStatus)
    i.SPI_I2S_ReceiveData                    0x08012dde   Section        0  stm32f10x_spi.o(i.SPI_I2S_ReceiveData)
    i.SPI_I2S_SendData                       0x08012de4   Section        0  stm32f10x_spi.o(i.SPI_I2S_SendData)
    i.SPI_Init                               0x08012de8   Section        0  stm32f10x_spi.o(i.SPI_Init)
    i.STMOpen                                0x08012e24   Section        0  midfunction.o(i.STMOpen)
    i.SVC_Handler                            0x08012e3c   Section        0  stm32f10x_it.o(i.SVC_Handler)
    i.SetStayInBoot                          0x08012e40   Section        0  recorder.o(i.SetStayInBoot)
    i.SetSysClock                            0x08012e7c   Section        0  system_stm32f10x.o(i.SetSysClock)
    SetSysClock                              0x08012e7d   Thumb Code     8  system_stm32f10x.o(i.SetSysClock)
    i.SetSysClockTo72                        0x08012e84   Section        0  system_stm32f10x.o(i.SetSysClockTo72)
    SetSysClockTo72                          0x08012e85   Thumb Code   212  system_stm32f10x.o(i.SetSysClockTo72)
    i.SlipSimpleCheck                        0x08012f60   Section        0  slip.o(i.SlipSimpleCheck)
    i.Slip_Pack                              0x08012fd8   Section        0  slip.o(i.Slip_Pack)
    i.Slip_Unpack                            0x0801305e   Section        0  slip.o(i.Slip_Unpack)
    i.SoftReset                              0x08013100   Section        0  recorder.o(i.SoftReset)
    i.Sound                                  0x08013130   Section        0  midfunction.o(i.Sound)
    i.SysTickConfig                          0x08013178   Section        0  delay.o(i.SysTickConfig)
    i.SysTick_Handler                        0x080131dc   Section        0  stm32f10x_it.o(i.SysTick_Handler)
    i.System72MDelay100us                    0x080131fc   Section        0  delay.o(i.System72MDelay100us)
    i.System72MDelay10us                     0x08013218   Section        0  delay.o(i.System72MDelay10us)
    i.System72MDelay1ms                      0x08013234   Section        0  delay.o(i.System72MDelay1ms)
    i.System72MDelay1us                      0x0801324c   Section        0  delay.o(i.System72MDelay1us)
    i.SystemGpioConfig                       0x0801325c   Section        0  systemconfig.o(i.SystemGpioConfig)
    i.SystemInit                             0x080132a8   Section        0  system_stm32f10x.o(i.SystemInit)
    i.TIM3_IRQHandler                        0x08013308   Section        0  stm32f10x_it.o(i.TIM3_IRQHandler)
    i.TIM_ClearITPendingBit                  0x08013338   Section        0  stm32f10x_tim.o(i.TIM_ClearITPendingBit)
    i.TIM_GetITStatus                        0x0801333e   Section        0  stm32f10x_tim.o(i.TIM_GetITStatus)
    i.TaskCreate                             0x08013360   Section        0  task.o(i.TaskCreate)
    i.U16DataFallRank                        0x080134c8   Section        0  adc.o(i.U16DataFallRank)
    i.Unpack                                 0x0801353c   Section        0  package.o(i.Unpack)
    i.UsageFault_Handler                     0x08013600   Section        0  stm32f10x_it.o(i.UsageFault_Handler)
    i.UsbIdentify                            0x08013604   Section        0  midfunction.o(i.UsbIdentify)
    i.WatchDogFeed                           0x08013650   Section        0  watchdog.o(i.WatchDogFeed)
    i.WatchDogInit                           0x08013658   Section        0  watchdog.o(i.WatchDogInit)
    i.Write374Block                          0x0801367c   Section        0  ch374interface.o(i.Write374Block)
    i.Write374Byte                           0x080136c0   Section        0  ch374interface.o(i.Write374Byte)
    i.WriteFactoryConfigParam                0x080136f4   Section        0  recorder.o(i.WriteFactoryConfigParam)
    i.WriteFlashDataWithCRC16                0x0801376c   Section        0  recorder.o(i.WriteFlashDataWithCRC16)
    i.__ARM_fpclassify                       0x08013820   Section        0  fpclassify.o(i.__ARM_fpclassify)
    i._is_digit                              0x08013848   Section        0  __printf_wp.o(i._is_digit)
    i.aes_decrypt                            0x08013858   Section        0  aes.o(i.aes_decrypt)
    i.aes_encrypt                            0x0801489c   Section        0  aes.o(i.aes_encrypt)
    i.aes_gen_tables                         0x080158dc   Section        0  aes.o(i.aes_gen_tables)
    i.aes_set_key                            0x080158e0   Section        0  aes.o(i.aes_set_key)
    i.main                                   0x08015cb4   Section        0  main.o(i.main)
    locale$$code                             0x08015cd8   Section       44  lc_numeric_c.o(locale$$code)
    locale$$code                             0x08015d04   Section       44  lc_ctype_c.o(locale$$code)
    x$fpl$d2f                                0x08015d30   Section       98  d2f.o(x$fpl$d2f)
    x$fpl$ddiv                               0x08015d94   Section      688  ddiv.o(x$fpl$ddiv)
    ddiv_entry                               0x08015d9b   Thumb Code     0  ddiv.o(x$fpl$ddiv)
    x$fpl$dfix                               0x08016044   Section       94  dfix.o(x$fpl$dfix)
    x$fpl$dfixu                              0x080160a4   Section       90  dfixu.o(x$fpl$dfixu)
    x$fpl$dfltu                              0x080160fe   Section       38  dflt_clz.o(x$fpl$dfltu)
    x$fpl$dmul                               0x08016124   Section      340  dmul.o(x$fpl$dmul)
    x$fpl$dnaninf                            0x08016278   Section      156  dnaninf.o(x$fpl$dnaninf)
    x$fpl$dretinf                            0x08016314   Section       12  dretinf.o(x$fpl$dretinf)
    x$fpl$f2d                                0x08016320   Section       86  f2d.o(x$fpl$f2d)
    x$fpl$fadd                               0x08016378   Section      196  faddsub_clz.o(x$fpl$fadd)
    _fadd1                                   0x08016387   Thumb Code     0  faddsub_clz.o(x$fpl$fadd)
    x$fpl$fdiv                               0x0801643c   Section      388  fdiv.o(x$fpl$fdiv)
    _fdiv1                                   0x0801643d   Thumb Code     0  fdiv.o(x$fpl$fdiv)
    x$fpl$ffix                               0x080165c0   Section       54  ffix.o(x$fpl$ffix)
    x$fpl$ffixu                              0x080165f8   Section       62  ffixu.o(x$fpl$ffixu)
    x$fpl$fflt                               0x08016638   Section       48  fflt_clz.o(x$fpl$fflt)
    x$fpl$ffltu                              0x08016668   Section       38  fflt_clz.o(x$fpl$ffltu)
    x$fpl$fmul                               0x08016690   Section      258  fmul.o(x$fpl$fmul)
    x$fpl$fnaninf                            0x08016792   Section      140  fnaninf.o(x$fpl$fnaninf)
    x$fpl$fretinf                            0x0801681e   Section       10  fretinf.o(x$fpl$fretinf)
    x$fpl$fsub                               0x08016828   Section      234  faddsub_clz.o(x$fpl$fsub)
    _fsub1                                   0x08016837   Thumb Code     0  faddsub_clz.o(x$fpl$fsub)
    x$fpl$printf1                            0x08016912   Section        4  printf1.o(x$fpl$printf1)
    x$fpl$usenofp                            0x08016916   Section        0  usenofp.o(x$fpl$usenofp)
    .constdata                               0x08016918   Section    10280  aes.o(.constdata)
    FSb                                      0x08016918   Data        1024  aes.o(.constdata)
    FT0                                      0x08016d18   Data        1024  aes.o(.constdata)
    FT1                                      0x08017118   Data        1024  aes.o(.constdata)
    FT2                                      0x08017518   Data        1024  aes.o(.constdata)
    FT3                                      0x08017918   Data        1024  aes.o(.constdata)
    RSb                                      0x08017d18   Data        1024  aes.o(.constdata)
    RT0                                      0x08018118   Data        1024  aes.o(.constdata)
    RT1                                      0x08018518   Data        1024  aes.o(.constdata)
    RT2                                      0x08018918   Data        1024  aes.o(.constdata)
    RT3                                      0x08018d18   Data        1024  aes.o(.constdata)
    RCON                                     0x08019118   Data          40  aes.o(.constdata)
    .constdata                               0x08019140   Section      512  crc16.o(.constdata)
    .constdata                               0x08019340   Section     7346  lcdutils.o(.constdata)
    .constdata                               0x0801aff2   Section       32  ch374device.o(.constdata)
    .constdata                               0x0801b012   Section       97  ch374devicehid.o(.constdata)
    .constdata                               0x0801b073   Section      256  os_core.o(.constdata)
    .constdata                               0x0801b173   Section       17  __printf_flags_wp.o(.constdata)
    maptable                                 0x0801b173   Data          17  __printf_flags_wp.o(.constdata)
    .constdata                               0x0801b184   Section      148  bigflt0.o(.constdata)
    tenpwrs_x                                0x0801b184   Data          60  bigflt0.o(.constdata)
    tenpwrs_i                                0x0801b1c0   Data          64  bigflt0.o(.constdata)
    locale$$data                             0x0801b238   Section       28  lc_numeric_c.o(locale$$data)
    __lcnum_c_name                           0x0801b23c   Data           2  lc_numeric_c.o(locale$$data)
    __lcnum_c_start                          0x0801b244   Data           0  lc_numeric_c.o(locale$$data)
    __lcnum_c_point                          0x0801b250   Data           0  lc_numeric_c.o(locale$$data)
    __lcnum_c_thousands                      0x0801b252   Data           0  lc_numeric_c.o(locale$$data)
    __lcnum_c_grouping                       0x0801b253   Data           0  lc_numeric_c.o(locale$$data)
    locale$$data                             0x0801b254   Section      272  lc_ctype_c.o(locale$$data)
    __lcnum_c_end                            0x0801b254   Data           0  lc_numeric_c.o(locale$$data)
    __lcctype_c_name                         0x0801b258   Data           2  lc_ctype_c.o(locale$$data)
    __lcctype_c_start                        0x0801b260   Data           0  lc_ctype_c.o(locale$$data)
    __lcctype_c_end                          0x0801b364   Data           0  lc_ctype_c.o(locale$$data)
    .data                                    0x20000000   Section        9  task.o(.data)
    .data                                    0x2000000c   Section        4  stm32f10x_it.o(.data)
    .data                                    0x20000010   Section        4  adc.o(.data)
    AdcMutex                                 0x20000010   Data           4  adc.o(.data)
    .data                                    0x20000014   Section        8  aes.o(.data)
    .data                                    0x2000001c   Section       12  lcdutils.o(.data)
    .data                                    0x20000028   Section        8  ch374device.o(.data)
    .data                                    0x20000030   Section        1  ch374devicehid.o(.data)
    .data                                    0x20000031   Section       20  stm32f10x_rcc.o(.data)
    APBAHBPrescTable                         0x20000031   Data          16  stm32f10x_rcc.o(.data)
    ADCPrescTable                            0x20000041   Data           4  stm32f10x_rcc.o(.data)
    .data                                    0x20000046   Section        2  os_cpu_c.o(.data)
    OSTmrCtr                                 0x20000046   Data           2  os_cpu_c.o(.data)
    .data                                    0x20000048   Section       92  os_core.o(.data)
    .bss                                     0x200000a8   Section     4673  task.o(.bss)
    .bss                                     0x200012ea   Section     2056  guestrespond.o(.bss)
    .bss                                     0x20001af2   Section      204  midfunction.o(.bss)
    .bss                                     0x20001bc0   Section       48  adc.o(.bss)
    .bss                                     0x20001bf0   Section     4096  aes.o(.bss)
    .bss                                     0x20002bf0   Section      384  lcdutils.o(.bss)
    .bss                                     0x20002d70   Section      516  package.o(.bss)
    AesCtx                                   0x20002d70   Data         516  package.o(.bss)
    .bss                                     0x20002f74   Section       44  ch374device.o(.bss)
    .bss                                     0x20002fa0   Section     1028  ch374devicehid.o(.bss)
    .bss                                     0x200033a4   Section     4712  os_core.o(.bss)
    .bss                                     0x2000460c   Section       96  libspace.o(.bss)
    HEAP                                     0x20004670   Section      512  startup_stm32f10x_hd.o(HEAP)
    Heap_Mem                                 0x20004670   Data         512  startup_stm32f10x_hd.o(HEAP)
    STACK                                    0x20004870   Section     1024  startup_stm32f10x_hd.o(STACK)
    Stack_Mem                                0x20004870   Data        1024  startup_stm32f10x_hd.o(STACK)
    __initial_sp                             0x20004c70   Data           0  startup_stm32f10x_hd.o(STACK)

    Global Symbols

    Symbol Name                              Value     Ov Type        Size  Object(Section)

    BuildAttributes$$THM_ISAv4$P$D$K$B$S$PE$A:L22UL41UL21$X:L11$S22US41US21$IEEE1$IW$USESV6$~STKCKD$USESV7$~SHL$OTIME$ROPI$IEEEJ$EBA8$UX$STANDARDLIB$REQ8$PRES8$EABIv2 0x00000000   Number         0  anon$$obj.o ABSOLUTE
    __ARM_use_no_argv                        0x00000000   Number         0  main.o ABSOLUTE
    _printf_flags                            0x00000000   Number         0  printf_stubs.o ABSOLUTE
    _printf_return_value                     0x00000000   Number         0  printf_stubs.o ABSOLUTE
    _printf_sizespec                         0x00000000   Number         0  printf_stubs.o ABSOLUTE
    _printf_widthprec                        0x00000000   Number         0  printf_stubs.o ABSOLUTE
    __ARM_exceptions_init                     - Undefined Weak Reference
    __alloca_initialize                       - Undefined Weak Reference
    __cpp_initialize__aeabi_                  - Undefined Weak Reference
    __cxa_finalize                            - Undefined Weak Reference
    __sigvec_lookup                           - Undefined Weak Reference
    _atexit_init                              - Undefined Weak Reference
    _call_atexit_fns                          - Undefined Weak Reference
    _clock_init                               - Undefined Weak Reference
    _fp_trap_init                             - Undefined Weak Reference
    _fp_trap_shutdown                         - Undefined Weak Reference
    _get_lc_collate                           - Undefined Weak Reference
    _get_lc_monetary                          - Undefined Weak Reference
    _get_lc_time                              - Undefined Weak Reference
    _getenv_init                              - Undefined Weak Reference
    _handle_redirection                       - Undefined Weak Reference
    _init_alloc                               - Undefined Weak Reference
    _init_user_alloc                          - Undefined Weak Reference
    _initio                                   - Undefined Weak Reference
    _printf_truncate_signed                   - Undefined Weak Reference
    _printf_truncate_unsigned                 - Undefined Weak Reference
    _rand_init                                - Undefined Weak Reference
    _scanf_longlong                           - Undefined Weak Reference
    _scanf_mbtowc                             - Undefined Weak Reference
    _scanf_real                               - Undefined Weak Reference
    _scanf_string                             - Undefined Weak Reference
    _scanf_wctomb                             - Undefined Weak Reference
    _scanf_wstring                            - Undefined Weak Reference
    _signal_finish                            - Undefined Weak Reference
    _signal_init                              - Undefined Weak Reference
    _terminate_alloc                          - Undefined Weak Reference
    _terminate_user_alloc                     - Undefined Weak Reference
    _terminateio                              - Undefined Weak Reference
    __Vectors_Size                           0x00000130   Number         0  startup_stm32f10x_hd.o ABSOLUTE
    __Vectors                                0x0800c800   Data           4  startup_stm32f10x_hd.o(RESET)
    __Vectors_End                            0x0800c930   Data           0  startup_stm32f10x_hd.o(RESET)
    __main                                   0x0800c931   Thumb Code     8  __main.o(!!!main)
    __scatterload                            0x0800c939   Thumb Code     0  __scatter.o(!!!scatter)
    __scatterload_rt2                        0x0800c939   Thumb Code    44  __scatter.o(!!!scatter)
    __scatterload_rt2_thumb_only             0x0800c939   Thumb Code     0  __scatter.o(!!!scatter)
    __scatterload_null                       0x0800c947   Thumb Code     0  __scatter.o(!!!scatter)
    __scatterload_copy                       0x0800c96d   Thumb Code    26  __scatter_copy.o(!!handler_copy)
    __scatterload_zeroinit                   0x0800c989   Thumb Code    28  __scatter_zi.o(!!handler_zi)
    _printf_f                                0x0800c9a5   Thumb Code     0  _printf_f.o(.ARM.Collect$$_printf_percent$$00000003)
    _printf_percent                          0x0800c9a5   Thumb Code     0  _printf_percent.o(.ARM.Collect$$_printf_percent$$00000000)
    _printf_d                                0x0800c9ab   Thumb Code     0  _printf_d.o(.ARM.Collect$$_printf_percent$$00000009)
    _printf_u                                0x0800c9b1   Thumb Code     0  _printf_u.o(.ARM.Collect$$_printf_percent$$0000000A)
    _printf_percent_end                      0x0800c9b7   Thumb Code     0  _printf_percent_end.o(.ARM.Collect$$_printf_percent$$00000017)
    __rt_lib_init                            0x0800c9bb   Thumb Code     0  libinit.o(.ARM.Collect$$libinit$$00000000)
    __rt_lib_init_fp_1                       0x0800c9bd   Thumb Code     0  libinit2.o(.ARM.Collect$$libinit$$00000002)
    __rt_lib_init_heap_1                     0x0800c9bd   Thumb Code     0  libinit2.o(.ARM.Collect$$libinit$$00000008)
    __rt_lib_init_lc_common                  0x0800c9bd   Thumb Code     0  libinit2.o(.ARM.Collect$$libinit$$0000000D)
    __rt_lib_init_rand_1                     0x0800c9bd   Thumb Code     0  libinit2.o(.ARM.Collect$$libinit$$0000000C)
    __rt_lib_init_user_alloc_1               0x0800c9bd   Thumb Code     0  libinit2.o(.ARM.Collect$$libinit$$0000000A)
    __rt_lib_init_lc_collate_1               0x0800c9c3   Thumb Code     0  libinit2.o(.ARM.Collect$$libinit$$0000000F)
    __rt_lib_init_lc_ctype_2                 0x0800c9c3   Thumb Code     0  libinit2.o(.ARM.Collect$$libinit$$00000010)
    __rt_lib_init_lc_ctype_1                 0x0800c9cf   Thumb Code     0  libinit2.o(.ARM.Collect$$libinit$$00000011)
    __rt_lib_init_lc_monetary_1              0x0800c9cf   Thumb Code     0  libinit2.o(.ARM.Collect$$libinit$$00000013)
    __rt_lib_init_lc_numeric_2               0x0800c9cf   Thumb Code     0  libinit2.o(.ARM.Collect$$libinit$$00000014)
    __rt_lib_init_alloca_1                   0x0800c9d9   Thumb Code     0  libinit2.o(.ARM.Collect$$libinit$$0000002C)
    __rt_lib_init_argv_1                     0x0800c9d9   Thumb Code     0  libinit2.o(.ARM.Collect$$libinit$$0000002A)
    __rt_lib_init_atexit_1                   0x0800c9d9   Thumb Code     0  libinit2.o(.ARM.Collect$$libinit$$00000019)
    __rt_lib_init_clock_1                    0x0800c9d9   Thumb Code     0  libinit2.o(.ARM.Collect$$libinit$$0000001F)
    __rt_lib_init_cpp_1                      0x0800c9d9   Thumb Code     0  libinit2.o(.ARM.Collect$$libinit$$00000030)
    __rt_lib_init_exceptions_1               0x0800c9d9   Thumb Code     0  libinit2.o(.ARM.Collect$$libinit$$0000002E)
    __rt_lib_init_fp_trap_1                  0x0800c9d9   Thumb Code     0  libinit2.o(.ARM.Collect$$libinit$$0000001D)
    __rt_lib_init_getenv_1                   0x0800c9d9   Thumb Code     0  libinit2.o(.ARM.Collect$$libinit$$00000021)
    __rt_lib_init_lc_numeric_1               0x0800c9d9   Thumb Code     0  libinit2.o(.ARM.Collect$$libinit$$00000015)
    __rt_lib_init_lc_time_1                  0x0800c9d9   Thumb Code     0  libinit2.o(.ARM.Collect$$libinit$$00000017)
    __rt_lib_init_return                     0x0800c9d9   Thumb Code     0  libinit2.o(.ARM.Collect$$libinit$$00000031)
    __rt_lib_init_signal_1                   0x0800c9d9   Thumb Code     0  libinit2.o(.ARM.Collect$$libinit$$0000001B)
    __rt_lib_init_stdio_1                    0x0800c9d9   Thumb Code     0  libinit2.o(.ARM.Collect$$libinit$$00000023)
    __rt_lib_shutdown                        0x0800c9db   Thumb Code     0  libshutdown.o(.ARM.Collect$$libshutdown$$00000000)
    __rt_lib_shutdown_fp_trap_1              0x0800c9dd   Thumb Code     0  libshutdown2.o(.ARM.Collect$$libshutdown$$00000006)
    __rt_lib_shutdown_heap_1                 0x0800c9dd   Thumb Code     0  libshutdown2.o(.ARM.Collect$$libshutdown$$0000000E)
    __rt_lib_shutdown_return                 0x0800c9dd   Thumb Code     0  libshutdown2.o(.ARM.Collect$$libshutdown$$0000000F)
    __rt_lib_shutdown_signal_1               0x0800c9dd   Thumb Code     0  libshutdown2.o(.ARM.Collect$$libshutdown$$00000009)
    __rt_lib_shutdown_stdio_1                0x0800c9dd   Thumb Code     0  libshutdown2.o(.ARM.Collect$$libshutdown$$00000003)
    __rt_lib_shutdown_user_alloc_1           0x0800c9dd   Thumb Code     0  libshutdown2.o(.ARM.Collect$$libshutdown$$0000000B)
    __rt_entry                               0x0800c9df   Thumb Code     0  rtentry.o(.ARM.Collect$$rtentry$$00000000)
    __rt_entry_presh_1                       0x0800c9df   Thumb Code     0  rtentry2.o(.ARM.Collect$$rtentry$$00000002)
    __rt_entry_sh                            0x0800c9df   Thumb Code     0  rtentry4.o(.ARM.Collect$$rtentry$$00000004)
    __rt_entry_li                            0x0800c9e5   Thumb Code     0  rtentry2.o(.ARM.Collect$$rtentry$$0000000A)
    __rt_entry_postsh_1                      0x0800c9e5   Thumb Code     0  rtentry2.o(.ARM.Collect$$rtentry$$00000009)
    __rt_entry_main                          0x0800c9e9   Thumb Code     0  rtentry2.o(.ARM.Collect$$rtentry$$0000000D)
    __rt_entry_postli_1                      0x0800c9e9   Thumb Code     0  rtentry2.o(.ARM.Collect$$rtentry$$0000000C)
    __rt_exit                                0x0800c9f1   Thumb Code     0  rtexit.o(.ARM.Collect$$rtexit$$00000000)
    __rt_exit_ls                             0x0800c9f3   Thumb Code     0  rtexit2.o(.ARM.Collect$$rtexit$$00000003)
    __rt_exit_prels_1                        0x0800c9f3   Thumb Code     0  rtexit2.o(.ARM.Collect$$rtexit$$00000002)
    __rt_exit_exit                           0x0800c9f7   Thumb Code     0  rtexit2.o(.ARM.Collect$$rtexit$$00000004)
    Reset_Handler                            0x0800c9fd   Thumb Code     8  startup_stm32f10x_hd.o(.text)
    ADC1_2_IRQHandler                        0x0800ca17   Thumb Code     0  startup_stm32f10x_hd.o(.text)
    ADC3_IRQHandler                          0x0800ca17   Thumb Code     0  startup_stm32f10x_hd.o(.text)
    CAN1_RX1_IRQHandler                      0x0800ca17   Thumb Code     0  startup_stm32f10x_hd.o(.text)
    CAN1_SCE_IRQHandler                      0x0800ca17   Thumb Code     0  startup_stm32f10x_hd.o(.text)
    DMA1_Channel1_IRQHandler                 0x0800ca17   Thumb Code     0  startup_stm32f10x_hd.o(.text)
    DMA1_Channel2_IRQHandler                 0x0800ca17   Thumb Code     0  startup_stm32f10x_hd.o(.text)
    DMA1_Channel3_IRQHandler                 0x0800ca17   Thumb Code     0  startup_stm32f10x_hd.o(.text)
    DMA1_Channel4_IRQHandler                 0x0800ca17   Thumb Code     0  startup_stm32f10x_hd.o(.text)
    DMA1_Channel5_IRQHandler                 0x0800ca17   Thumb Code     0  startup_stm32f10x_hd.o(.text)
    DMA1_Channel6_IRQHandler                 0x0800ca17   Thumb Code     0  startup_stm32f10x_hd.o(.text)
    DMA1_Channel7_IRQHandler                 0x0800ca17   Thumb Code     0  startup_stm32f10x_hd.o(.text)
    DMA2_Channel1_IRQHandler                 0x0800ca17   Thumb Code     0  startup_stm32f10x_hd.o(.text)
    DMA2_Channel2_IRQHandler                 0x0800ca17   Thumb Code     0  startup_stm32f10x_hd.o(.text)
    DMA2_Channel3_IRQHandler                 0x0800ca17   Thumb Code     0  startup_stm32f10x_hd.o(.text)
    DMA2_Channel4_5_IRQHandler               0x0800ca17   Thumb Code     0  startup_stm32f10x_hd.o(.text)
    EXTI0_IRQHandler                         0x0800ca17   Thumb Code     0  startup_stm32f10x_hd.o(.text)
    EXTI15_10_IRQHandler                     0x0800ca17   Thumb Code     0  startup_stm32f10x_hd.o(.text)
    EXTI1_IRQHandler                         0x0800ca17   Thumb Code     0  startup_stm32f10x_hd.o(.text)
    EXTI2_IRQHandler                         0x0800ca17   Thumb Code     0  startup_stm32f10x_hd.o(.text)
    EXTI3_IRQHandler                         0x0800ca17   Thumb Code     0  startup_stm32f10x_hd.o(.text)
    EXTI4_IRQHandler                         0x0800ca17   Thumb Code     0  startup_stm32f10x_hd.o(.text)
    FLASH_IRQHandler                         0x0800ca17   Thumb Code     0  startup_stm32f10x_hd.o(.text)
    FSMC_IRQHandler                          0x0800ca17   Thumb Code     0  startup_stm32f10x_hd.o(.text)
    I2C1_ER_IRQHandler                       0x0800ca17   Thumb Code     0  startup_stm32f10x_hd.o(.text)
    I2C1_EV_IRQHandler                       0x0800ca17   Thumb Code     0  startup_stm32f10x_hd.o(.text)
    I2C2_ER_IRQHandler                       0x0800ca17   Thumb Code     0  startup_stm32f10x_hd.o(.text)
    I2C2_EV_IRQHandler                       0x0800ca17   Thumb Code     0  startup_stm32f10x_hd.o(.text)
    PVD_IRQHandler                           0x0800ca17   Thumb Code     0  startup_stm32f10x_hd.o(.text)
    RCC_IRQHandler                           0x0800ca17   Thumb Code     0  startup_stm32f10x_hd.o(.text)
    RTCAlarm_IRQHandler                      0x0800ca17   Thumb Code     0  startup_stm32f10x_hd.o(.text)
    RTC_IRQHandler                           0x0800ca17   Thumb Code     0  startup_stm32f10x_hd.o(.text)
    SDIO_IRQHandler                          0x0800ca17   Thumb Code     0  startup_stm32f10x_hd.o(.text)
    SPI1_IRQHandler                          0x0800ca17   Thumb Code     0  startup_stm32f10x_hd.o(.text)
    SPI2_IRQHandler                          0x0800ca17   Thumb Code     0  startup_stm32f10x_hd.o(.text)
    SPI3_IRQHandler                          0x0800ca17   Thumb Code     0  startup_stm32f10x_hd.o(.text)
    TAMPER_IRQHandler                        0x0800ca17   Thumb Code     0  startup_stm32f10x_hd.o(.text)
    TIM1_BRK_IRQHandler                      0x0800ca17   Thumb Code     0  startup_stm32f10x_hd.o(.text)
    TIM1_CC_IRQHandler                       0x0800ca17   Thumb Code     0  startup_stm32f10x_hd.o(.text)
    TIM1_TRG_COM_IRQHandler                  0x0800ca17   Thumb Code     0  startup_stm32f10x_hd.o(.text)
    TIM1_UP_IRQHandler                       0x0800ca17   Thumb Code     0  startup_stm32f10x_hd.o(.text)
    TIM2_IRQHandler                          0x0800ca17   Thumb Code     0  startup_stm32f10x_hd.o(.text)
    TIM4_IRQHandler                          0x0800ca17   Thumb Code     0  startup_stm32f10x_hd.o(.text)
    TIM5_IRQHandler                          0x0800ca17   Thumb Code     0  startup_stm32f10x_hd.o(.text)
    TIM6_IRQHandler                          0x0800ca17   Thumb Code     0  startup_stm32f10x_hd.o(.text)
    TIM7_IRQHandler                          0x0800ca17   Thumb Code     0  startup_stm32f10x_hd.o(.text)
    TIM8_BRK_IRQHandler                      0x0800ca17   Thumb Code     0  startup_stm32f10x_hd.o(.text)
    TIM8_CC_IRQHandler                       0x0800ca17   Thumb Code     0  startup_stm32f10x_hd.o(.text)
    TIM8_TRG_COM_IRQHandler                  0x0800ca17   Thumb Code     0  startup_stm32f10x_hd.o(.text)
    TIM8_UP_IRQHandler                       0x0800ca17   Thumb Code     0  startup_stm32f10x_hd.o(.text)
    UART4_IRQHandler                         0x0800ca17   Thumb Code     0  startup_stm32f10x_hd.o(.text)
    UART5_IRQHandler                         0x0800ca17   Thumb Code     0  startup_stm32f10x_hd.o(.text)
    USART1_IRQHandler                        0x0800ca17   Thumb Code     0  startup_stm32f10x_hd.o(.text)
    USART2_IRQHandler                        0x0800ca17   Thumb Code     0  startup_stm32f10x_hd.o(.text)
    USART3_IRQHandler                        0x0800ca17   Thumb Code     0  startup_stm32f10x_hd.o(.text)
    USBWakeUp_IRQHandler                     0x0800ca17   Thumb Code     0  startup_stm32f10x_hd.o(.text)
    USB_HP_CAN1_TX_IRQHandler                0x0800ca17   Thumb Code     0  startup_stm32f10x_hd.o(.text)
    USB_LP_CAN1_RX0_IRQHandler               0x0800ca17   Thumb Code     0  startup_stm32f10x_hd.o(.text)
    WWDG_IRQHandler                          0x0800ca17   Thumb Code     0  startup_stm32f10x_hd.o(.text)
    __user_initial_stackheap                 0x0800ca19   Thumb Code     0  startup_stm32f10x_hd.o(.text)
    OS_CPU_SR_Save                           0x0800ca3d   Thumb Code     0  os_cpu_a.o(.text)
    OS_CPU_SR_Restore                        0x0800ca45   Thumb Code     0  os_cpu_a.o(.text)
    OSStartHighRdy                           0x0800ca4b   Thumb Code     0  os_cpu_a.o(.text)
    OSCtxSw                                  0x0800ca6b   Thumb Code     0  os_cpu_a.o(.text)
    OSIntCtxSw                               0x0800ca75   Thumb Code     0  os_cpu_a.o(.text)
    OS_CPU_PendSVHandler                     0x0800ca7f   Thumb Code     0  os_cpu_a.o(.text)
    __2sprintf                               0x0800cae1   Thumb Code    38  __2sprintf.o(.text)
    _printf_pre_padding                      0x0800cb0d   Thumb Code    46  _printf_pad.o(.text)
    _printf_post_padding                     0x0800cb3b   Thumb Code    36  _printf_pad.o(.text)
    _printf_int_dec                          0x0800cb61   Thumb Code   102  _printf_dec.o(.text)
    __printf                                 0x0800cbd9   Thumb Code   310  __printf_flags_wp.o(.text)
    __0sscanf                                0x0800cd15   Thumb Code    52  __0sscanf.o(.text)
    _scanf_int                               0x0800cd51   Thumb Code   336  _scanf_int.o(.text)
    memcmp                                   0x0800cea1   Thumb Code    88  memcmp.o(.text)
    strcpy                                   0x0800cef9   Thumb Code    72  strcpy.o(.text)
    __aeabi_memcpy                           0x0800cf41   Thumb Code     0  rt_memcpy_v6.o(.text)
    __rt_memcpy                              0x0800cf41   Thumb Code   138  rt_memcpy_v6.o(.text)
    _memcpy_lastbytes                        0x0800cfa7   Thumb Code     0  rt_memcpy_v6.o(.text)
    __aeabi_memcpy4                          0x0800cfcb   Thumb Code     0  rt_memcpy_w.o(.text)
    __aeabi_memcpy8                          0x0800cfcb   Thumb Code     0  rt_memcpy_w.o(.text)
    __rt_memcpy_w                            0x0800cfcb   Thumb Code   100  rt_memcpy_w.o(.text)
    _memcpy_lastbytes_aligned                0x0800d013   Thumb Code     0  rt_memcpy_w.o(.text)
    __aeabi_memclr                           0x0800d02f   Thumb Code     0  rt_memclr.o(.text)
    __rt_memclr                              0x0800d02f   Thumb Code    68  rt_memclr.o(.text)
    _memset                                  0x0800d033   Thumb Code     0  rt_memclr.o(.text)
    __aeabi_memclr4                          0x0800d073   Thumb Code     0  rt_memclr_w.o(.text)
    __aeabi_memclr8                          0x0800d073   Thumb Code     0  rt_memclr_w.o(.text)
    __rt_memclr_w                            0x0800d073   Thumb Code    78  rt_memclr_w.o(.text)
    _memset_w                                0x0800d077   Thumb Code     0  rt_memclr_w.o(.text)
    strncpy                                  0x0800d0c1   Thumb Code    86  strncpy.o(.text)
    __use_two_region_memory                  0x0800d117   Thumb Code     2  heapauxi.o(.text)
    __rt_heap_escrow$2region                 0x0800d119   Thumb Code     2  heapauxi.o(.text)
    __rt_heap_expand$2region                 0x0800d11b   Thumb Code     2  heapauxi.o(.text)
    _printf_int_common                       0x0800d11d   Thumb Code   184  _printf_intcommon.o(.text)
    __lib_sel_fp_printf                      0x0800d1d5   Thumb Code     2  _printf_fp_dec.o(.text)
    _printf_fp_dec_real                      0x0800d381   Thumb Code   628  _printf_fp_dec.o(.text)
    _printf_char_common                      0x0800d5ff   Thumb Code    32  _printf_char_common.o(.text)
    _sputc                                   0x0800d625   Thumb Code    10  _sputc.o(.text)
    _chval                                   0x0800d62f   Thumb Code    28  _chval.o(.text)
    __vfscanf_char                           0x0800d659   Thumb Code    24  scanf_char.o(.text)
    _sgetc                                   0x0800d679   Thumb Code    30  _sgetc.o(.text)
    _sbackspace                              0x0800d697   Thumb Code    34  _sgetc.o(.text)
    __rt_locale                              0x0800d6b9   Thumb Code     8  rt_locale_intlibspace.o(.text)
    _ll_udiv10                               0x0800d6c1   Thumb Code   138  lludiv10.o(.text)
    isspace                                  0x0800d74b   Thumb Code    18  isspace.o(.text)
    _printf_fp_infnan                        0x0800d75d   Thumb Code   112  _printf_fp_infnan.o(.text)
    __vfscanf                                0x0800d7dd   Thumb Code   876  _scanf.o(.text)
    _btod_etento                             0x0800db4d   Thumb Code   222  bigflt0.o(.text)
    __user_libspace                          0x0800dc31   Thumb Code     8  libspace.o(.text)
    __user_perproc_libspace                  0x0800dc31   Thumb Code     0  libspace.o(.text)
    __user_perthread_libspace                0x0800dc31   Thumb Code     0  libspace.o(.text)
    __user_setup_stackheap                   0x0800dc39   Thumb Code    74  sys_stackheap_outer.o(.text)
    __rt_ctype_table                         0x0800dc85   Thumb Code    16  rt_ctype_table.o(.text)
    exit                                     0x0800dc95   Thumb Code    12  exit.o(.text)
    strcmp                                   0x0800dca1   Thumb Code   128  strcmpv7m.o(.text)
    _sys_exit                                0x0800dd21   Thumb Code     8  sys_exit.o(.text)
    __I$use$semihosting                      0x0800dd2d   Thumb Code     0  use_no_semi.o(.text)
    __use_no_semihosting_swi                 0x0800dd2d   Thumb Code     2  use_no_semi.o(.text)
    __semihosting_library_function           0x0800dd2f   Thumb Code     0  indicate_semi.o(.text)
    _btod_d2e                                0x0800dd2f   Thumb Code    62  btod.o(CL$$btod_d2e)
    _d2e_denorm_low                          0x0800dd6d   Thumb Code    70  btod.o(CL$$btod_d2e_denorm_low)
    _d2e_norm_op1                            0x0800ddb3   Thumb Code    96  btod.o(CL$$btod_d2e_norm_op1)
    __btod_div_common                        0x0800de13   Thumb Code   696  btod.o(CL$$btod_div_common)
    _e2e                                     0x0800e14b   Thumb Code   198  btod.o(CL$$btod_e2e)
    _btod_ediv                               0x0800e211   Thumb Code    40  btod.o(CL$$btod_ediv)
    _btod_emul                               0x0800e239   Thumb Code    40  btod.o(CL$$btod_emul)
    __btod_mult_common                       0x0800e261   Thumb Code   580  btod.o(CL$$btod_mult_common)
    ADC_ClearFlag                            0x0800e4a5   Thumb Code     6  stm32f10x_adc.o(i.ADC_ClearFlag)
    ADC_Cmd                                  0x0800e4ab   Thumb Code    22  stm32f10x_adc.o(i.ADC_Cmd)
    ADC_GetCalibrationStatus                 0x0800e4c1   Thumb Code    20  stm32f10x_adc.o(i.ADC_GetCalibrationStatus)
    ADC_GetConversionValue                   0x0800e4d5   Thumb Code     8  stm32f10x_adc.o(i.ADC_GetConversionValue)
    ADC_GetFlagStatus                        0x0800e4dd   Thumb Code    18  stm32f10x_adc.o(i.ADC_GetFlagStatus)
    ADC_GetResetCalibrationStatus            0x0800e4ef   Thumb Code    20  stm32f10x_adc.o(i.ADC_GetResetCalibrationStatus)
    ADC_Init                                 0x0800e505   Thumb Code    70  stm32f10x_adc.o(i.ADC_Init)
    ADC_RegularChannelConfig                 0x0800e555   Thumb Code   184  stm32f10x_adc.o(i.ADC_RegularChannelConfig)
    ADC_ResetCalibration                     0x0800e60d   Thumb Code    10  stm32f10x_adc.o(i.ADC_ResetCalibration)
    ADC_SoftwareStartConvCmd                 0x0800e617   Thumb Code    22  stm32f10x_adc.o(i.ADC_SoftwareStartConvCmd)
    ADC_StartCalibration                     0x0800e62d   Thumb Code    10  stm32f10x_adc.o(i.ADC_StartCalibration)
    Adc2VoltageOrCurrent                     0x0800e639   Thumb Code   160  adc.o(i.Adc2VoltageOrCurrent)
    AdcConfig                                0x0800e6dd   Thumb Code   150  adc.o(i.AdcConfig)
    AppLEDTask                               0x0800e7b9   Thumb Code    26  task.o(i.AppLEDTask)
    AppOLEDTask                              0x0800e7d9   Thumb Code    14  task.o(i.AppOLEDTask)
    AppPowerOffTask                          0x0800e7e7   Thumb Code    14  task.o(i.AppPowerOffTask)
    AppQueueTask                             0x0800e7f5   Thumb Code    22  task.o(i.AppQueueTask)
    AppStartUpTask                           0x0800e80b   Thumb Code    50  task.o(i.AppStartUpTask)
    AppTestTask                              0x0800e83d   Thumb Code    46  task.o(i.AppTestTask)
    AppUsbTask                               0x0800e871   Thumb Code    94  task.o(i.AppUsbTask)
    AutoPowerOff                             0x0800e8e1   Thumb Code    30  midfunction.o(i.AutoPowerOff)
    BusFault_Handler                         0x0800e8ff   Thumb Code     4  stm32f10x_it.o(i.BusFault_Handler)
    BusIsShort                               0x0800e903   Thumb Code    28  adc.o(i.BusIsShort)
    BusLeakIsShort                           0x0800e91f   Thumb Code    50  adc.o(i.BusLeakIsShort)
    CH374DeviceInit                          0x0800e951   Thumb Code   176  ch374device.o(i.CH374DeviceInit)
    CH374DeviceInterrupt                     0x0800ea19   Thumb Code  1074  ch374device.o(i.CH374DeviceInterrupt)
    CH374InterruptCallBack                   0x0800ee69   Thumb Code    22  ch374devicehid.o(i.CH374InterruptCallBack)
    CH374SpiConfig                           0x0800ee85   Thumb Code   156  ch374interface.o(i.CH374SpiConfig)
    CH374SpiSendByte                         0x0800ef29   Thumb Code    50  ch374interface.o(i.CH374SpiSendByte)
    CH374WriteBlockZero                      0x0800ef61   Thumb Code    58  ch374interface.o(i.CH374WriteBlockZero)
    Ch374HardWareConfig                      0x0800efa1   Thumb Code   166  ch374interface.o(i.Ch374HardWareConfig)
    DebugMon_Handler                         0x0800f051   Thumb Code     2  stm32f10x_it.o(i.DebugMon_Handler)
    DeviceHidOutCallBack                     0x0800f055   Thumb Code    86  ch374devicehid.o(i.DeviceHidOutCallBack)
    DeviceHidSendData                        0x0800f0b5   Thumb Code   160  ch374devicehid.o(i.DeviceHidSendData)
    DeviceHidSendFinishCallBack              0x0800f159   Thumb Code     8  ch374devicehid.o(i.DeviceHidSendFinishCallBack)
    EXTI9_5_IRQHandler                       0x0800f165   Thumb Code    30  stm32f10x_it.o(i.EXTI9_5_IRQHandler)
    EXTI_ClearITPendingBit                   0x0800f185   Thumb Code     6  stm32f10x_exti.o(i.EXTI_ClearITPendingBit)
    EXTI_GetITStatus                         0x0800f191   Thumb Code    34  stm32f10x_exti.o(i.EXTI_GetITStatus)
    EXTI_Init                                0x0800f1b9   Thumb Code   142  stm32f10x_exti.o(i.EXTI_Init)
    EliminateBusCurrentErr                   0x0800f24d   Thumb Code    78  adc.o(i.EliminateBusCurrentErr)
    FLASH_ClearFlag                          0x0800f29d   Thumb Code     6  stm32f10x_flash.o(i.FLASH_ClearFlag)
    FLASH_ErasePage                          0x0800f2a9   Thumb Code    72  stm32f10x_flash.o(i.FLASH_ErasePage)
    FLASH_GetBank1Status                     0x0800f2f5   Thumb Code    48  stm32f10x_flash.o(i.FLASH_GetBank1Status)
    FLASH_Lock                               0x0800f329   Thumb Code    14  stm32f10x_flash.o(i.FLASH_Lock)
    FLASH_ProgramHalfWord                    0x0800f33d   Thumb Code    60  stm32f10x_flash.o(i.FLASH_ProgramHalfWord)
    FLASH_Unlock                             0x0800f37d   Thumb Code    12  stm32f10x_flash.o(i.FLASH_Unlock)
    FLASH_WaitForLastOperation               0x0800f395   Thumb Code    38  stm32f10x_flash.o(i.FLASH_WaitForLastOperation)
    GPIO_EXTILineConfig                      0x0800f3bd   Thumb Code    60  stm32f10x_gpio.o(i.GPIO_EXTILineConfig)
    GPIO_Init                                0x0800f3fd   Thumb Code   274  stm32f10x_gpio.o(i.GPIO_Init)
    GPIO_PinRemapConfig                      0x0800f511   Thumb Code   138  stm32f10x_gpio.o(i.GPIO_PinRemapConfig)
    GPIO_ReadInputDataBit                    0x0800f5a1   Thumb Code    18  stm32f10x_gpio.o(i.GPIO_ReadInputDataBit)
    GPIO_ResetBits                           0x0800f5b3   Thumb Code     4  stm32f10x_gpio.o(i.GPIO_ResetBits)
    GPIO_SetBits                             0x0800f5b7   Thumb Code     4  stm32f10x_gpio.o(i.GPIO_SetBits)
    GetAdcValue                              0x0800f5bd   Thumb Code   202  adc.o(i.GetAdcValue)
    GetBatteryVoltage                        0x0800f68d   Thumb Code    52  adc.o(i.GetBatteryVoltage)
    GetBufferStringLenght                    0x0800f6c9   Thumb Code    24  guestrespond.o(i.GetBufferStringLenght)
    GetBusCurrent                            0x0800f6e1   Thumb Code   114  adc.o(i.GetBusCurrent)
    GetBusLeakCurrent                        0x0800f765   Thumb Code   210  adc.o(i.GetBusLeakCurrent)
    GetBusVoltage                            0x0800f84d   Thumb Code   174  adc.o(i.GetBusVoltage)
    GetBusVoltageFromAdcValue                0x0800f8fd   Thumb Code   206  adc.o(i.GetBusVoltageFromAdcValue)
    GetCrc16Value                            0x0800f9dd   Thumb Code    64  crc16.o(i.GetCrc16Value)
    GetDecValueFromSeparator                 0x0800fa25   Thumb Code   106  guestrespond.o(i.GetDecValueFromSeparator)
    GetGeneralRespondData                    0x0800fa99   Thumb Code    66  guestrespond.o(i.GetGeneralRespondData)
    GetLinABAdcValue                         0x0800fae1   Thumb Code    40  adc.o(i.GetLinABAdcValue)
    GpioConfig                               0x0800fb09   Thumb Code   140  systemconfig.o(i.GpioConfig)
    GuestRespond                             0x0800fb9d   Thumb Code  2488  guestrespond.o(i.GuestRespond)
    HardFault_Handler                        0x08010559   Thumb Code     4  stm32f10x_it.o(i.HardFault_Handler)
    I2C_Delay                                0x0801055d   Thumb Code    20  i2c.o(i.I2C_Delay)
    I2C_FromBusyToIdle                       0x08010571   Thumb Code    54  i2c.o(i.I2C_FromBusyToIdle)
    I2C_GPIO_Config                          0x080105ad   Thumb Code    76  i2c.o(i.I2C_GPIO_Config)
    I2C_SendByte                             0x080105fd   Thumb Code   106  i2c.o(i.I2C_SendByte)
    I2C_Start                                0x0801066d   Thumb Code   118  i2c.o(i.I2C_Start)
    I2C_Stop                                 0x080106e9   Thumb Code    74  i2c.o(i.I2C_Stop)
    I2C_WaitAck                              0x08010739   Thumb Code    96  i2c.o(i.I2C_WaitAck)
    I2C_WriteByte                            0x0801079d   Thumb Code    94  i2c.o(i.I2C_WriteByte)
    I2C_WriteData                            0x080107fb   Thumb Code   104  i2c.o(i.I2C_WriteData)
    IWDG_Enable                              0x08010865   Thumb Code    10  stm32f10x_iwdg.o(i.IWDG_Enable)
    IWDG_ReloadCounter                       0x08010875   Thumb Code    10  stm32f10x_iwdg.o(i.IWDG_ReloadCounter)
    IWDG_SetPrescaler                        0x08010885   Thumb Code     6  stm32f10x_iwdg.o(i.IWDG_SetPrescaler)
    IWDG_SetReload                           0x08010891   Thumb Code     6  stm32f10x_iwdg.o(i.IWDG_SetReload)
    IWDG_WriteAccessCmd                      0x0801089d   Thumb Code     6  stm32f10x_iwdg.o(i.IWDG_WriteAccessCmd)
    LEDConfig                                0x080108a9   Thumb Code    96  led.o(i.LEDConfig)
    LcdBufferClear                           0x08010915   Thumb Code    42  lcdutils.o(i.LcdBufferClear)
    LcdBufferPaint                           0x08010945   Thumb Code    40  lcdutils.o(i.LcdBufferPaint)
    LcdCheckCharHz                           0x08010971   Thumb Code   158  lcdutils.o(i.LcdCheckCharHz)
    LcdClear                                 0x08010a31   Thumb Code    56  lcd.o(i.LcdClear)
    LcdDrawOne                               0x08010a69   Thumb Code   182  lcdutils.o(i.LcdDrawOne)
    LcdDrawPoint                             0x08010b29   Thumb Code   150  lcdutils.o(i.LcdDrawPoint)
    LcdDrawString                            0x08010bc5   Thumb Code    86  lcdutils.o(i.LcdDrawString)
    LcdDrawStringCenter                      0x08010c21   Thumb Code    30  lcdutils.o(i.LcdDrawStringCenter)
    LcdDrawStringHCenter                     0x08010c45   Thumb Code    88  lcdutils.o(i.LcdDrawStringHCenter)
    LcdInit                                  0x08010ca1   Thumb Code   182  lcd.o(i.LcdInit)
    LcdSetFont                               0x08010d59   Thumb Code    66  lcdutils.o(i.LcdSetFont)
    LcdSetFontState                          0x08010da5   Thumb Code     6  lcdutils.o(i.LcdSetFontState)
    LcdSetPos                                0x08010db1   Thumb Code    36  lcd.o(i.LcdSetPos)
    LcdShowStr2Center                        0x08010dd5   Thumb Code    58  lcdutils.o(i.LcdShowStr2Center)
    LcdShowStrCenter                         0x08010e15   Thumb Code    20  lcdutils.o(i.LcdShowStrCenter)
    LcdWriteCommand                          0x08010e29   Thumb Code    16  lcd.o(i.LcdWriteCommand)
    LcdWriteData                             0x08010e39   Thumb Code    16  lcd.o(i.LcdWriteData)
    LcdWriteDataBytes                        0x08010e49   Thumb Code    20  lcd.o(i.LcdWriteDataBytes)
    MemManage_Handler                        0x08010e5d   Thumb Code     4  stm32f10x_it.o(i.MemManage_Handler)
    NMI_Handler                              0x08010e61   Thumb Code     2  stm32f10x_it.o(i.NMI_Handler)
    NVIC_Init                                0x08010e65   Thumb Code   102  misc.o(i.NVIC_Init)
    NVIC_SetVectorTable                      0x08010ed9   Thumb Code    12  misc.o(i.NVIC_SetVectorTable)
    OLEDDisplay                              0x08010eed   Thumb Code   344  midfunction.o(i.OLEDDisplay)
    OSEventNameSet                           0x080110a9   Thumb Code    84  os_core.o(i.OSEventNameSet)
    OSInit                                   0x08011101   Thumb Code    48  os_core.o(i.OSInit)
    OSInitHookBegin                          0x08011131   Thumb Code     8  os_cpu_c.o(i.OSInitHookBegin)
    OSInitHookEnd                            0x0801113d   Thumb Code     2  os_cpu_c.o(i.OSInitHookEnd)
    OSIntEnter                               0x08011141   Thumb Code    28  os_core.o(i.OSIntEnter)
    OSIntExit                                0x08011165   Thumb Code   112  os_core.o(i.OSIntExit)
    OSMutexCreate                            0x080111f5   Thumb Code   138  os_mutex.o(i.OSMutexCreate)
    OSMutexPend                              0x08011291   Thumb Code   568  os_mutex.o(i.OSMutexPend)
    OSMutexPost                              0x080114e1   Thumb Code   186  os_mutex.o(i.OSMutexPost)
    OSSchedLock                              0x0801162d   Thumb Code    50  os_core.o(i.OSSchedLock)
    OSSchedUnlock                            0x0801166d   Thumb Code    82  os_core.o(i.OSSchedUnlock)
    OSSemCreate                              0x080116cd   Thumb Code    72  os_sem.o(i.OSSemCreate)
    OSSemPend                                0x08011721   Thumb Code   228  os_sem.o(i.OSSemPend)
    OSSemPost                                0x08011811   Thumb Code    88  os_sem.o(i.OSSemPost)
    OSStart                                  0x08011869   Thumb Code    48  os_core.o(i.OSStart)
    OSTCBInitHook                            0x080118b1   Thumb Code     2  os_cpu_c.o(i.OSTCBInitHook)
    OSTaskCreateExt                          0x080118b5   Thumb Code   170  os_task.o(i.OSTaskCreateExt)
    OSTaskCreateHook                         0x0801196d   Thumb Code     2  os_cpu_c.o(i.OSTaskCreateHook)
    OSTaskDel                                0x08011971   Thumb Code   292  os_task.o(i.OSTaskDel)
    OSTaskDelHook                            0x08011ac1   Thumb Code     2  os_cpu_c.o(i.OSTaskDelHook)
    OSTaskIdleHook                           0x08011ac3   Thumb Code     2  os_cpu_c.o(i.OSTaskIdleHook)
    OSTaskNameSet                            0x08011ac5   Thumb Code    98  os_task.o(i.OSTaskNameSet)
    OSTaskResume                             0x08011b35   Thumb Code   160  os_task.o(i.OSTaskResume)
    OSTaskStatHook                           0x08011be5   Thumb Code     2  os_cpu_c.o(i.OSTaskStatHook)
    OSTaskStkChk                             0x08011be9   Thumb Code   132  os_task.o(i.OSTaskStkChk)
    OSTaskStkInit                            0x08011c75   Thumb Code   154  os_cpu_c.o(i.OSTaskStkInit)
    OSTaskSuspend                            0x08011d11   Thumb Code   152  os_task.o(i.OSTaskSuspend)
    OSTaskSwHook                             0x08011db9   Thumb Code     2  os_cpu_c.o(i.OSTaskSwHook)
    OSTimeDly                                0x08011dbd   Thumb Code   100  os_time.o(i.OSTimeDly)
    OSTimeTick                               0x08011e35   Thumb Code   218  os_core.o(i.OSTimeTick)
    OSTimeTickHook                           0x08011f29   Thumb Code    30  os_cpu_c.o(i.OSTimeTickHook)
    OSTmrSignal                              0x08011f4d   Thumb Code    16  os_tmr.o(i.OSTmrSignal)
    OSTmr_Init                               0x08011f61   Thumb Code   168  os_tmr.o(i.OSTmr_Init)
    OS_Dummy                                 0x080121d5   Thumb Code     2  os_core.o(i.OS_Dummy)
    OS_EventTaskRdy                          0x080121d9   Thumb Code   132  os_core.o(i.OS_EventTaskRdy)
    OS_EventTaskRemove                       0x0801226d   Thumb Code    42  os_core.o(i.OS_EventTaskRemove)
    OS_EventTaskRemoveMulti                  0x08012297   Thumb Code    60  os_core.o(i.OS_EventTaskRemoveMulti)
    OS_EventTaskWait                         0x080122d5   Thumb Code   112  os_core.o(i.OS_EventTaskWait)
    OS_EventWaitListInit                     0x08012351   Thumb Code    28  os_core.o(i.OS_EventWaitListInit)
    OS_MemClr                                0x08012579   Thumb Code    18  os_core.o(i.OS_MemClr)
    OS_MemInit                               0x0801258d   Thumb Code    74  os_mem.o(i.OS_MemInit)
    OS_QInit                                 0x080125e5   Thumb Code    72  os_q.o(i.OS_QInit)
    OS_Sched                                 0x08012635   Thumb Code    88  os_core.o(i.OS_Sched)
    OS_TCBInit                               0x080126d5   Thumb Code   288  os_core.o(i.OS_TCBInit)
    OS_TaskIdle                              0x08012811   Thumb Code    34  os_core.o(i.OS_TaskIdle)
    OS_TaskStat                              0x08012839   Thumb Code   116  os_core.o(i.OS_TaskStat)
    OS_TaskStatStkChk                        0x080128c1   Thumb Code    54  os_core.o(i.OS_TaskStatStkChk)
    OS_TaskStkClr                            0x080128fd   Thumb Code    26  os_task.o(i.OS_TaskStkClr)
    Pack                                     0x08012919   Thumb Code   174  package.o(i.Pack)
    PackageKeyInit                           0x080129cd   Thumb Code    14  package.o(i.PackageKeyInit)
    Queue_Init                               0x080129f5   Thumb Code    22  midfunction.o(i.Queue_Init)
    Queue_push                               0x08012a11   Thumb Code   220  midfunction.o(i.Queue_push)
    RCC_ADCCLKConfig                         0x08012af1   Thumb Code    18  stm32f10x_rcc.o(i.RCC_ADCCLKConfig)
    RCC_APB1PeriphClockCmd                   0x08012b09   Thumb Code    26  stm32f10x_rcc.o(i.RCC_APB1PeriphClockCmd)
    RCC_APB2PeriphClockCmd                   0x08012b29   Thumb Code    26  stm32f10x_rcc.o(i.RCC_APB2PeriphClockCmd)
    RCC_GetClocksFreq                        0x08012b49   Thumb Code   192  stm32f10x_rcc.o(i.RCC_GetClocksFreq)
    Read374Block                             0x08012c25   Thumb Code    64  ch374interface.o(i.Read374Block)
    Read374Byte                              0x08012c69   Thumb Code    48  ch374interface.o(i.Read374Byte)
    ReadFactoryConfigParam                   0x08012c9d   Thumb Code   132  recorder.o(i.ReadFactoryConfigParam)
    ReadFlashDataWithCRC16                   0x08012d2d   Thumb Code   128  recorder.o(i.ReadFlashDataWithCRC16)
    SPI_Cmd                                  0x08012db5   Thumb Code    24  stm32f10x_spi.o(i.SPI_Cmd)
    SPI_I2S_GetFlagStatus                    0x08012dcd   Thumb Code    18  stm32f10x_spi.o(i.SPI_I2S_GetFlagStatus)
    SPI_I2S_ReceiveData                      0x08012ddf   Thumb Code     6  stm32f10x_spi.o(i.SPI_I2S_ReceiveData)
    SPI_I2S_SendData                         0x08012de5   Thumb Code     4  stm32f10x_spi.o(i.SPI_I2S_SendData)
    SPI_Init                                 0x08012de9   Thumb Code    60  stm32f10x_spi.o(i.SPI_Init)
    STMOpen                                  0x08012e25   Thumb Code    24  midfunction.o(i.STMOpen)
    SVC_Handler                              0x08012e3d   Thumb Code     2  stm32f10x_it.o(i.SVC_Handler)
    SetStayInBoot                            0x08012e41   Thumb Code    56  recorder.o(i.SetStayInBoot)
    SlipSimpleCheck                          0x08012f61   Thumb Code   120  slip.o(i.SlipSimpleCheck)
    Slip_Pack                                0x08012fd9   Thumb Code   134  slip.o(i.Slip_Pack)
    Slip_Unpack                              0x0801305f   Thumb Code   160  slip.o(i.Slip_Unpack)
    SoftReset                                0x08013101   Thumb Code    38  recorder.o(i.SoftReset)
    Sound                                    0x08013131   Thumb Code    66  midfunction.o(i.Sound)
    SysTickConfig                            0x08013179   Thumb Code    92  delay.o(i.SysTickConfig)
    SysTick_Handler                          0x080131dd   Thumb Code    26  stm32f10x_it.o(i.SysTick_Handler)
    System72MDelay100us                      0x080131fd   Thumb Code    28  delay.o(i.System72MDelay100us)
    System72MDelay10us                       0x08013219   Thumb Code    28  delay.o(i.System72MDelay10us)
    System72MDelay1ms                        0x08013235   Thumb Code    24  delay.o(i.System72MDelay1ms)
    System72MDelay1us                        0x0801324d   Thumb Code    16  delay.o(i.System72MDelay1us)
    SystemGpioConfig                         0x0801325d   Thumb Code    68  systemconfig.o(i.SystemGpioConfig)
    SystemInit                               0x080132a9   Thumb Code    78  system_stm32f10x.o(i.SystemInit)
    TIM3_IRQHandler                          0x08013309   Thumb Code    38  stm32f10x_it.o(i.TIM3_IRQHandler)
    TIM_ClearITPendingBit                    0x08013339   Thumb Code     6  stm32f10x_tim.o(i.TIM_ClearITPendingBit)
    TIM_GetITStatus                          0x0801333f   Thumb Code    34  stm32f10x_tim.o(i.TIM_GetITStatus)
    TaskCreate                               0x08013361   Thumb Code   302  task.o(i.TaskCreate)
    U16DataFallRank                          0x080134c9   Thumb Code   114  adc.o(i.U16DataFallRank)
    Unpack                                   0x0801353d   Thumb Code   192  package.o(i.Unpack)
    UsageFault_Handler                       0x08013601   Thumb Code     4  stm32f10x_it.o(i.UsageFault_Handler)
    UsbIdentify                              0x08013605   Thumb Code    64  midfunction.o(i.UsbIdentify)
    WatchDogFeed                             0x08013651   Thumb Code     8  watchdog.o(i.WatchDogFeed)
    WatchDogInit                             0x08013659   Thumb Code    34  watchdog.o(i.WatchDogInit)
    Write374Block                            0x0801367d   Thumb Code    62  ch374interface.o(i.Write374Block)
    Write374Byte                             0x080136c1   Thumb Code    46  ch374interface.o(i.Write374Byte)
    WriteFactoryConfigParam                  0x080136f5   Thumb Code   106  recorder.o(i.WriteFactoryConfigParam)
    WriteFlashDataWithCRC16                  0x0801376d   Thumb Code   170  recorder.o(i.WriteFlashDataWithCRC16)
    __ARM_fpclassify                         0x08013821   Thumb Code    40  fpclassify.o(i.__ARM_fpclassify)
    _is_digit                                0x08013849   Thumb Code    14  __printf_wp.o(i._is_digit)
    aes_decrypt                              0x08013859   Thumb Code  4144  aes.o(i.aes_decrypt)
    aes_encrypt                              0x0801489d   Thumb Code  4138  aes.o(i.aes_encrypt)
    aes_gen_tables                           0x080158dd   Thumb Code     2  aes.o(i.aes_gen_tables)
    aes_set_key                              0x080158e1   Thumb Code   930  aes.o(i.aes_set_key)
    main                                     0x08015cb5   Thumb Code    34  main.o(i.main)
    _get_lc_numeric                          0x08015cd9   Thumb Code    44  lc_numeric_c.o(locale$$code)
    _get_lc_ctype                            0x08015d05   Thumb Code    44  lc_ctype_c.o(locale$$code)
    __aeabi_d2f                              0x08015d31   Thumb Code     0  d2f.o(x$fpl$d2f)
    _d2f                                     0x08015d31   Thumb Code    98  d2f.o(x$fpl$d2f)
    __aeabi_ddiv                             0x08015d95   Thumb Code     0  ddiv.o(x$fpl$ddiv)
    _ddiv                                    0x08015d95   Thumb Code   552  ddiv.o(x$fpl$ddiv)
    __aeabi_d2iz                             0x08016045   Thumb Code     0  dfix.o(x$fpl$dfix)
    _dfix                                    0x08016045   Thumb Code    94  dfix.o(x$fpl$dfix)
    __aeabi_d2uiz                            0x080160a5   Thumb Code     0  dfixu.o(x$fpl$dfixu)
    _dfixu                                   0x080160a5   Thumb Code    90  dfixu.o(x$fpl$dfixu)
    __aeabi_ui2d                             0x080160ff   Thumb Code     0  dflt_clz.o(x$fpl$dfltu)
    _dfltu                                   0x080160ff   Thumb Code    38  dflt_clz.o(x$fpl$dfltu)
    __aeabi_dmul                             0x08016125   Thumb Code     0  dmul.o(x$fpl$dmul)
    _dmul                                    0x08016125   Thumb Code   332  dmul.o(x$fpl$dmul)
    __fpl_dnaninf                            0x08016279   Thumb Code   156  dnaninf.o(x$fpl$dnaninf)
    __fpl_dretinf                            0x08016315   Thumb Code    12  dretinf.o(x$fpl$dretinf)
    __aeabi_f2d                              0x08016321   Thumb Code     0  f2d.o(x$fpl$f2d)
    _f2d                                     0x08016321   Thumb Code    86  f2d.o(x$fpl$f2d)
    __aeabi_fadd                             0x08016379   Thumb Code     0  faddsub_clz.o(x$fpl$fadd)
    _fadd                                    0x08016379   Thumb Code   196  faddsub_clz.o(x$fpl$fadd)
    __aeabi_fdiv                             0x0801643d   Thumb Code     0  fdiv.o(x$fpl$fdiv)
    _fdiv                                    0x0801643d   Thumb Code   384  fdiv.o(x$fpl$fdiv)
    __aeabi_f2iz                             0x080165c1   Thumb Code     0  ffix.o(x$fpl$ffix)
    _ffix                                    0x080165c1   Thumb Code    54  ffix.o(x$fpl$ffix)
    __aeabi_f2uiz                            0x080165f9   Thumb Code     0  ffixu.o(x$fpl$ffixu)
    _ffixu                                   0x080165f9   Thumb Code    62  ffixu.o(x$fpl$ffixu)
    __aeabi_i2f                              0x08016639   Thumb Code     0  fflt_clz.o(x$fpl$fflt)
    _fflt                                    0x08016639   Thumb Code    48  fflt_clz.o(x$fpl$fflt)
    __aeabi_ui2f                             0x08016669   Thumb Code     0  fflt_clz.o(x$fpl$ffltu)
    _ffltu                                   0x08016669   Thumb Code    38  fflt_clz.o(x$fpl$ffltu)
    __aeabi_fmul                             0x08016691   Thumb Code     0  fmul.o(x$fpl$fmul)
    _fmul                                    0x08016691   Thumb Code   258  fmul.o(x$fpl$fmul)
    __fpl_fnaninf                            0x08016793   Thumb Code   140  fnaninf.o(x$fpl$fnaninf)
    __fpl_fretinf                            0x0801681f   Thumb Code    10  fretinf.o(x$fpl$fretinf)
    __aeabi_fsub                             0x08016829   Thumb Code     0  faddsub_clz.o(x$fpl$fsub)
    _fsub                                    0x08016829   Thumb Code   234  faddsub_clz.o(x$fpl$fsub)
    _printf_fp_dec                           0x08016913   Thumb Code     4  printf1.o(x$fpl$printf1)
    __I$use$fp                               0x08016916   Number         0  usenofp.o(x$fpl$usenofp)
    auch_CRCHi                               0x08019140   Data         256  crc16.o(.constdata)
    auch_CRCLo                               0x08019240   Data         256  crc16.o(.constdata)
    charIndex8_16                            0x08019340   Data          96  lcdutils.o(.constdata)
    chardot8_16                              0x080193a0   Data        1536  lcdutils.o(.constdata)
    hzIndex16_16                             0x080199a0   Data          42  lcdutils.o(.constdata)
    hzdot16_16                               0x080199ca   Data         672  lcdutils.o(.constdata)
    charIndex12_24                           0x08019c6a   Data          96  lcdutils.o(.constdata)
    chardot12_24                             0x08019cca   Data        4608  lcdutils.o(.constdata)
    hzIndex24_24                             0x0801aeca   Data           8  lcdutils.o(.constdata)
    hzdot24_24                               0x0801aed2   Data         288  lcdutils.o(.constdata)
    LangDescr                                0x0801aff2   Data           4  ch374device.o(.constdata)
    ManuInfo                                 0x0801aff6   Data          14  ch374device.o(.constdata)
    ProdInfo                                 0x0801b004   Data          14  ch374device.o(.constdata)
    CustomHID_DeviceDescriptor               0x0801b012   Data          18  ch374devicehid.o(.constdata)
    CustomHID_ConfigDescriptor               0x0801b024   Data          41  ch374devicehid.o(.constdata)
    CustomHID_ReportDescriptor               0x0801b04d   Data          38  ch374devicehid.o(.constdata)
    OSUnMapTbl                               0x0801b073   Data         256  os_core.o(.constdata)
    Region$$Table$$Base                      0x0801b218   Number         0  anon$$obj.o(Region$$Table)
    Region$$Table$$Limit                     0x0801b238   Number         0  anon$$obj.o(Region$$Table)
    __ctype                                  0x0801b261   Data           0  lc_ctype_c.o(locale$$data)
    MsgSem                                   0x20000000   Data           4  task.o(.data)
    op_data                                  0x20000004   Data           5  task.o(.data)
    TickCounter                              0x2000000c   Data           4  stm32f10x_it.o(.data)
    do_init                                  0x20000014   Data           4  aes.o(.data)
    KT_init                                  0x20000018   Data           4  aes.o(.data)
    LcdFont                                  0x2000001c   Data           6  lcdutils.o(.data)
    LcdState                                 0x20000022   Data           6  lcdutils.o(.data)
    UsbConfig                                0x20000028   Data           1  ch374device.o(.data)
    CH374ErrFlag                             0x20000029   Data           1  ch374device.o(.data)
    mVarSetupRequest                         0x2000002a   Data           1  ch374device.o(.data)
    mVarSetupLength                          0x2000002b   Data           1  ch374device.o(.data)
    VarSetupDescr                            0x2000002c   Data           4  ch374device.o(.data)
    DeviceHidSendFinish                      0x20000030   Data           1  ch374devicehid.o(.data)
    OSCtxSwCtr                               0x20000048   Data           4  os_core.o(.data)
    OSEventFreeList                          0x2000004c   Data           4  os_core.o(.data)
    OSCPUUsage                               0x20000050   Data           1  os_core.o(.data)
    OSIdleCtrMax                             0x20000054   Data           4  os_core.o(.data)
    OSIdleCtrRun                             0x20000058   Data           4  os_core.o(.data)
    OSStatRdy                                0x2000005c   Data           1  os_core.o(.data)
    OSIntNesting                             0x2000005d   Data           1  os_core.o(.data)
    OSLockNesting                            0x2000005e   Data           1  os_core.o(.data)
    OSPrioCur                                0x2000005f   Data           1  os_core.o(.data)
    OSPrioHighRdy                            0x20000060   Data           1  os_core.o(.data)
    OSRdyGrp                                 0x20000061   Data           1  os_core.o(.data)
    OSRdyTbl                                 0x20000062   Data           8  os_core.o(.data)
    OSRunning                                0x2000006a   Data           1  os_core.o(.data)
    OSTaskCtr                                0x2000006b   Data           1  os_core.o(.data)
    OSIdleCtr                                0x2000006c   Data           4  os_core.o(.data)
    OSTCBCur                                 0x20000070   Data           4  os_core.o(.data)
    OSTCBFreeList                            0x20000074   Data           4  os_core.o(.data)
    OSTCBHighRdy                             0x20000078   Data           4  os_core.o(.data)
    OSTCBList                                0x2000007c   Data           4  os_core.o(.data)
    OSTickStepState                          0x20000080   Data           1  os_core.o(.data)
    OSMemFreeList                            0x20000084   Data           4  os_core.o(.data)
    OSQFreeList                              0x20000088   Data           4  os_core.o(.data)
    OSTime                                   0x2000008c   Data           4  os_core.o(.data)
    OSTmrFree                                0x20000090   Data           2  os_core.o(.data)
    OSTmrUsed                                0x20000092   Data           2  os_core.o(.data)
    OSTmrTime                                0x20000094   Data           4  os_core.o(.data)
    OSTmrSem                                 0x20000098   Data           4  os_core.o(.data)
    OSTmrSemSignal                           0x2000009c   Data           4  os_core.o(.data)
    OSTmrFreeList                            0x200000a0   Data           4  os_core.o(.data)
    PrivateStk                               0x200000a8   Data        4608  task.o(.bss)
    DeviceInfo                               0x200012a8   Data          65  task.o(.bss)
    GusetSendBuffer                          0x200012ea   Data        1028  guestrespond.o(.bss)
    GusetTempBuffer                          0x200016ee   Data        1028  guestrespond.o(.bss)
    queue                                    0x20001af2   Data         204  midfunction.o(.bss)
    adc_adjust                               0x20001bc0   Data          48  adc.o(.bss)
    KT0                                      0x20001bf0   Data        1024  aes.o(.bss)
    KT1                                      0x20001ff0   Data        1024  aes.o(.bss)
    KT2                                      0x200023f0   Data        1024  aes.o(.bss)
    KT3                                      0x200027f0   Data        1024  aes.o(.bss)
    LcdBuffer                                0x20002bf0   Data         384  lcdutils.o(.bss)
    Ch374Device                              0x20002f74   Data          44  ch374device.o(.bss)
    HidData                                  0x20002fa0   Data        1028  ch374devicehid.o(.bss)
    OSEventTbl                               0x200033a4   Data         240  os_core.o(.bss)
    OSTaskStatStk                            0x20003494   Data         512  os_core.o(.bss)
    OSTaskIdleStk                            0x20003694   Data         512  os_core.o(.bss)
    OSTCBPrioTbl                             0x20003894   Data         256  os_core.o(.bss)
    OSTCBTbl                                 0x20003994   Data        1760  os_core.o(.bss)
    OSMemTbl                                 0x20004074   Data         120  os_core.o(.bss)
    OSQTbl                                   0x200040ec   Data          96  os_core.o(.bss)
    OSTmrTbl                                 0x2000414c   Data         640  os_core.o(.bss)
    OSTmrTaskStk                             0x200043cc   Data         512  os_core.o(.bss)
    OSTmrWheelTbl                            0x200045cc   Data          64  os_core.o(.bss)
    __libspace_start                         0x2000460c   Data          96  libspace.o(.bss)
    __temporary_stack_top$libspace           0x2000466c   Data           0  libspace.o(.bss)



==============================================================================

Memory Map of the image

  Image Entry point : 0x0800c931

  Load Region LR_IROM1 (Base: 0x0800c800, Size: 0x0000ec08, Max: 0x00040000, ABSOLUTE)

    Execution Region ER_IROM1 (Base: 0x0800c800, Size: 0x0000eb64, Max: 0x00040000, ABSOLUTE)

    Base Addr    Size         Type   Attr      Idx    E Section Name        Object

    0x0800c800   0x00000130   Data   RO           19    RESET               startup_stm32f10x_hd.o
    0x0800c930   0x00000008   Code   RO         3810  * !!!main             c_w.l(__main.o)
    0x0800c938   0x00000034   Code   RO         4094    !!!scatter          c_w.l(__scatter.o)
    0x0800c96c   0x0000001a   Code   RO         4096    !!handler_copy      c_w.l(__scatter_copy.o)
    0x0800c986   0x00000002   PAD
    0x0800c988   0x0000001c   Code   RO         4098    !!handler_zi        c_w.l(__scatter_zi.o)
    0x0800c9a4   0x00000000   Code   RO         3789    .ARM.Collect$$_printf_percent$$00000000  c_w.l(_printf_percent.o)
    0x0800c9a4   0x00000006   Code   RO         3788    .ARM.Collect$$_printf_percent$$00000003  c_w.l(_printf_f.o)
    0x0800c9aa   0x00000006   Code   RO         3786    .ARM.Collect$$_printf_percent$$00000009  c_w.l(_printf_d.o)
    0x0800c9b0   0x00000006   Code   RO         3787    .ARM.Collect$$_printf_percent$$0000000A  c_w.l(_printf_u.o)
    0x0800c9b6   0x00000004   Code   RO         3873    .ARM.Collect$$_printf_percent$$00000017  c_w.l(_printf_percent_end.o)
    0x0800c9ba   0x00000002   Code   RO         3967    .ARM.Collect$$libinit$$00000000  c_w.l(libinit.o)
    0x0800c9bc   0x00000000   Code   RO         3969    .ARM.Collect$$libinit$$00000002  c_w.l(libinit2.o)
    0x0800c9bc   0x00000000   Code   RO         3972    .ARM.Collect$$libinit$$00000008  c_w.l(libinit2.o)
    0x0800c9bc   0x00000000   Code   RO         3974    .ARM.Collect$$libinit$$0000000A  c_w.l(libinit2.o)
    0x0800c9bc   0x00000000   Code   RO         3976    .ARM.Collect$$libinit$$0000000C  c_w.l(libinit2.o)
    0x0800c9bc   0x00000006   Code   RO         3977    .ARM.Collect$$libinit$$0000000D  c_w.l(libinit2.o)
    0x0800c9c2   0x00000000   Code   RO         3979    .ARM.Collect$$libinit$$0000000F  c_w.l(libinit2.o)
    0x0800c9c2   0x0000000c   Code   RO         3980    .ARM.Collect$$libinit$$00000010  c_w.l(libinit2.o)
    0x0800c9ce   0x00000000   Code   RO         3981    .ARM.Collect$$libinit$$00000011  c_w.l(libinit2.o)
    0x0800c9ce   0x00000000   Code   RO         3983    .ARM.Collect$$libinit$$00000013  c_w.l(libinit2.o)
    0x0800c9ce   0x0000000a   Code   RO         3984    .ARM.Collect$$libinit$$00000014  c_w.l(libinit2.o)
    0x0800c9d8   0x00000000   Code   RO         3985    .ARM.Collect$$libinit$$00000015  c_w.l(libinit2.o)
    0x0800c9d8   0x00000000   Code   RO         3987    .ARM.Collect$$libinit$$00000017  c_w.l(libinit2.o)
    0x0800c9d8   0x00000000   Code   RO         3989    .ARM.Collect$$libinit$$00000019  c_w.l(libinit2.o)
    0x0800c9d8   0x00000000   Code   RO         3991    .ARM.Collect$$libinit$$0000001B  c_w.l(libinit2.o)
    0x0800c9d8   0x00000000   Code   RO         3993    .ARM.Collect$$libinit$$0000001D  c_w.l(libinit2.o)
    0x0800c9d8   0x00000000   Code   RO         3995    .ARM.Collect$$libinit$$0000001F  c_w.l(libinit2.o)
    0x0800c9d8   0x00000000   Code   RO         3997    .ARM.Collect$$libinit$$00000021  c_w.l(libinit2.o)
    0x0800c9d8   0x00000000   Code   RO         3999    .ARM.Collect$$libinit$$00000023  c_w.l(libinit2.o)
    0x0800c9d8   0x00000000   Code   RO         4003    .ARM.Collect$$libinit$$0000002A  c_w.l(libinit2.o)
    0x0800c9d8   0x00000000   Code   RO         4005    .ARM.Collect$$libinit$$0000002C  c_w.l(libinit2.o)
    0x0800c9d8   0x00000000   Code   RO         4007    .ARM.Collect$$libinit$$0000002E  c_w.l(libinit2.o)
    0x0800c9d8   0x00000000   Code   RO         4009    .ARM.Collect$$libinit$$00000030  c_w.l(libinit2.o)
    0x0800c9d8   0x00000002   Code   RO         4010    .ARM.Collect$$libinit$$00000031  c_w.l(libinit2.o)
    0x0800c9da   0x00000002   Code   RO         4043    .ARM.Collect$$libshutdown$$00000000  c_w.l(libshutdown.o)
    0x0800c9dc   0x00000000   Code   RO         4055    .ARM.Collect$$libshutdown$$00000003  c_w.l(libshutdown2.o)
    0x0800c9dc   0x00000000   Code   RO         4058    .ARM.Collect$$libshutdown$$00000006  c_w.l(libshutdown2.o)
    0x0800c9dc   0x00000000   Code   RO         4061    .ARM.Collect$$libshutdown$$00000009  c_w.l(libshutdown2.o)
    0x0800c9dc   0x00000000   Code   RO         4063    .ARM.Collect$$libshutdown$$0000000B  c_w.l(libshutdown2.o)
    0x0800c9dc   0x00000000   Code   RO         4066    .ARM.Collect$$libshutdown$$0000000E  c_w.l(libshutdown2.o)
    0x0800c9dc   0x00000002   Code   RO         4067    .ARM.Collect$$libshutdown$$0000000F  c_w.l(libshutdown2.o)
    0x0800c9de   0x00000000   Code   RO         3864    .ARM.Collect$$rtentry$$00000000  c_w.l(rtentry.o)
    0x0800c9de   0x00000000   Code   RO         3890    .ARM.Collect$$rtentry$$00000002  c_w.l(rtentry2.o)
    0x0800c9de   0x00000006   Code   RO         3902    .ARM.Collect$$rtentry$$00000004  c_w.l(rtentry4.o)
    0x0800c9e4   0x00000000   Code   RO         3892    .ARM.Collect$$rtentry$$00000009  c_w.l(rtentry2.o)
    0x0800c9e4   0x00000004   Code   RO         3893    .ARM.Collect$$rtentry$$0000000A  c_w.l(rtentry2.o)
    0x0800c9e8   0x00000000   Code   RO         3895    .ARM.Collect$$rtentry$$0000000C  c_w.l(rtentry2.o)
    0x0800c9e8   0x00000008   Code   RO         3896    .ARM.Collect$$rtentry$$0000000D  c_w.l(rtentry2.o)
    0x0800c9f0   0x00000002   Code   RO         4011    .ARM.Collect$$rtexit$$00000000  c_w.l(rtexit.o)
    0x0800c9f2   0x00000000   Code   RO         4021    .ARM.Collect$$rtexit$$00000002  c_w.l(rtexit2.o)
    0x0800c9f2   0x00000004   Code   RO         4022    .ARM.Collect$$rtexit$$00000003  c_w.l(rtexit2.o)
    0x0800c9f6   0x00000006   Code   RO         4023    .ARM.Collect$$rtexit$$00000004  c_w.l(rtexit2.o)
    0x0800c9fc   0x00000040   Code   RO           20    .text               startup_stm32f10x_hd.o
    0x0800ca3c   0x000000a4   Code   RO         3031    .text               os_cpu_a.o
    0x0800cae0   0x0000002c   Code   RO         3756    .text               c_w.l(__2sprintf.o)
    0x0800cb0c   0x00000052   Code   RO         3762    .text               c_w.l(_printf_pad.o)
    0x0800cb5e   0x00000002   PAD
    0x0800cb60   0x00000078   Code   RO         3764    .text               c_w.l(_printf_dec.o)
    0x0800cbd8   0x0000013c   Code   RO         3778    .text               c_w.l(__printf_flags_wp.o)
    0x0800cd14   0x0000003c   Code   RO         3790    .text               c_w.l(__0sscanf.o)
    0x0800cd50   0x00000150   Code   RO         3792    .text               c_w.l(_scanf_int.o)
    0x0800cea0   0x00000058   Code   RO         3794    .text               c_w.l(memcmp.o)
    0x0800cef8   0x00000048   Code   RO         3796    .text               c_w.l(strcpy.o)
    0x0800cf40   0x0000008a   Code   RO         3798    .text               c_w.l(rt_memcpy_v6.o)
    0x0800cfca   0x00000064   Code   RO         3800    .text               c_w.l(rt_memcpy_w.o)
    0x0800d02e   0x00000044   Code   RO         3802    .text               c_w.l(rt_memclr.o)
    0x0800d072   0x0000004e   Code   RO         3804    .text               c_w.l(rt_memclr_w.o)
    0x0800d0c0   0x00000056   Code   RO         3806    .text               c_w.l(strncpy.o)
    0x0800d116   0x00000006   Code   RO         3808    .text               c_w.l(heapauxi.o)
    0x0800d11c   0x000000b8   Code   RO         3865    .text               c_w.l(_printf_intcommon.o)
    0x0800d1d4   0x00000420   Code   RO         3867    .text               c_w.l(_printf_fp_dec.o)
    0x0800d5f4   0x00000030   Code   RO         3869    .text               c_w.l(_printf_char_common.o)
    0x0800d624   0x0000000a   Code   RO         3871    .text               c_w.l(_sputc.o)
    0x0800d62e   0x0000001c   Code   RO         3874    .text               c_w.l(_chval.o)
    0x0800d64a   0x00000002   PAD
    0x0800d64c   0x0000002c   Code   RO         3876    .text               c_w.l(scanf_char.o)
    0x0800d678   0x00000040   Code   RO         3878    .text               c_w.l(_sgetc.o)
    0x0800d6b8   0x00000008   Code   RO         3907    .text               c_w.l(rt_locale_intlibspace.o)
    0x0800d6c0   0x0000008a   Code   RO         3909    .text               c_w.l(lludiv10.o)
    0x0800d74a   0x00000012   Code   RO         3911    .text               c_w.l(isspace.o)
    0x0800d75c   0x00000080   Code   RO         3913    .text               c_w.l(_printf_fp_infnan.o)
    0x0800d7dc   0x00000370   Code   RO         3917    .text               c_w.l(_scanf.o)
    0x0800db4c   0x000000e4   Code   RO         3919    .text               c_w.l(bigflt0.o)
    0x0800dc30   0x00000008   Code   RO         3951    .text               c_w.l(libspace.o)
    0x0800dc38   0x0000004a   Code   RO         3954    .text               c_w.l(sys_stackheap_outer.o)
    0x0800dc82   0x00000002   PAD
    0x0800dc84   0x00000010   Code   RO         3956    .text               c_w.l(rt_ctype_table.o)
    0x0800dc94   0x0000000c   Code   RO         3958    .text               c_w.l(exit.o)
    0x0800dca0   0x00000080   Code   RO         3960    .text               c_w.l(strcmpv7m.o)
    0x0800dd20   0x0000000c   Code   RO         4033    .text               c_w.l(sys_exit.o)
    0x0800dd2c   0x00000002   Code   RO         4044    .text               c_w.l(use_no_semi.o)
    0x0800dd2e   0x00000000   Code   RO         4046    .text               c_w.l(indicate_semi.o)
    0x0800dd2e   0x0000003e   Code   RO         3922    CL$$btod_d2e        c_w.l(btod.o)
    0x0800dd6c   0x00000046   Code   RO         3924    CL$$btod_d2e_denorm_low  c_w.l(btod.o)
    0x0800ddb2   0x00000060   Code   RO         3923    CL$$btod_d2e_norm_op1  c_w.l(btod.o)
    0x0800de12   0x00000338   Code   RO         3932    CL$$btod_div_common  c_w.l(btod.o)
    0x0800e14a   0x000000c6   Code   RO         3929    CL$$btod_e2e        c_w.l(btod.o)
    0x0800e210   0x00000028   Code   RO         3926    CL$$btod_ediv       c_w.l(btod.o)
    0x0800e238   0x00000028   Code   RO         3925    CL$$btod_emul       c_w.l(btod.o)
    0x0800e260   0x00000244   Code   RO         3931    CL$$btod_mult_common  c_w.l(btod.o)
    0x0800e4a4   0x00000006   Code   RO         1809    i.ADC_ClearFlag     stm32f10x_adc.o
    0x0800e4aa   0x00000016   Code   RO         1811    i.ADC_Cmd           stm32f10x_adc.o
    0x0800e4c0   0x00000014   Code   RO         1819    i.ADC_GetCalibrationStatus  stm32f10x_adc.o
    0x0800e4d4   0x00000008   Code   RO         1820    i.ADC_GetConversionValue  stm32f10x_adc.o
    0x0800e4dc   0x00000012   Code   RO         1822    i.ADC_GetFlagStatus  stm32f10x_adc.o
    0x0800e4ee   0x00000014   Code   RO         1825    i.ADC_GetResetCalibrationStatus  stm32f10x_adc.o
    0x0800e502   0x00000002   PAD
    0x0800e504   0x00000050   Code   RO         1829    i.ADC_Init          stm32f10x_adc.o
    0x0800e554   0x000000b8   Code   RO         1833    i.ADC_RegularChannelConfig  stm32f10x_adc.o
    0x0800e60c   0x0000000a   Code   RO         1834    i.ADC_ResetCalibration  stm32f10x_adc.o
    0x0800e616   0x00000016   Code   RO         1836    i.ADC_SoftwareStartConvCmd  stm32f10x_adc.o
    0x0800e62c   0x0000000a   Code   RO         1838    i.ADC_StartCalibration  stm32f10x_adc.o
    0x0800e636   0x00000002   PAD
    0x0800e638   0x000000a4   Code   RO          567    i.Adc2VoltageOrCurrent  adc.o
    0x0800e6dc   0x000000a4   Code   RO          568    i.AdcConfig         adc.o
    0x0800e780   0x00000028   Code   RO          569    i.AdcLock           adc.o
    0x0800e7a8   0x00000010   Code   RO          570    i.AdcUnlock         adc.o
    0x0800e7b8   0x00000020   Code   RO          101    i.AppLEDTask        task.o
    0x0800e7d8   0x0000000e   Code   RO          102    i.AppOLEDTask       task.o
    0x0800e7e6   0x0000000e   Code   RO          103    i.AppPowerOffTask   task.o
    0x0800e7f4   0x00000016   Code   RO          104    i.AppQueueTask      task.o
    0x0800e80a   0x00000032   Code   RO          105    i.AppStartUpTask    task.o
    0x0800e83c   0x00000034   Code   RO          106    i.AppTestTask       task.o
    0x0800e870   0x00000070   Code   RO          107    i.AppUsbTask        task.o
    0x0800e8e0   0x0000001e   Code   RO          419    i.AutoPowerOff      midfunction.o
    0x0800e8fe   0x00000004   Code   RO          270    i.BusFault_Handler  stm32f10x_it.o
    0x0800e902   0x0000001c   Code   RO          572    i.BusIsShort        adc.o
    0x0800e91e   0x00000032   Code   RO          573    i.BusLeakIsShort    adc.o
    0x0800e950   0x000000c8   Code   RO         1136    i.CH374DeviceInit   ch374device.o
    0x0800ea18   0x00000450   Code   RO         1137    i.CH374DeviceInterrupt  ch374device.o
    0x0800ee68   0x0000001c   Code   RO         1159    i.CH374InterruptCallBack  ch374devicehid.o
    0x0800ee84   0x000000a4   Code   RO         1197    i.CH374SpiConfig    ch374interface.o
    0x0800ef28   0x00000038   Code   RO         1198    i.CH374SpiSendByte  ch374interface.o
    0x0800ef60   0x00000040   Code   RO         1199    i.CH374WriteBlockZero  ch374interface.o
    0x0800efa0   0x000000b0   Code   RO         1200    i.Ch374HardWareConfig  ch374interface.o
    0x0800f050   0x00000002   Code   RO          271    i.DebugMon_Handler  stm32f10x_it.o
    0x0800f052   0x00000002   PAD
    0x0800f054   0x00000060   Code   RO         1160    i.DeviceHidOutCallBack  ch374devicehid.o
    0x0800f0b4   0x000000a4   Code   RO         1161    i.DeviceHidSendData  ch374devicehid.o
    0x0800f158   0x0000000c   Code   RO         1162    i.DeviceHidSendFinishCallBack  ch374devicehid.o
    0x0800f164   0x0000001e   Code   RO          272    i.EXTI9_5_IRQHandler  stm32f10x_it.o
    0x0800f182   0x00000002   PAD
    0x0800f184   0x0000000c   Code   RO         1294    i.EXTI_ClearITPendingBit  stm32f10x_exti.o
    0x0800f190   0x00000028   Code   RO         1298    i.EXTI_GetITStatus  stm32f10x_exti.o
    0x0800f1b8   0x00000094   Code   RO         1299    i.EXTI_Init         stm32f10x_exti.o
    0x0800f24c   0x0000004e   Code   RO          575    i.EliminateBusCurrentErr  adc.o
    0x0800f29a   0x00000002   PAD
    0x0800f29c   0x0000000c   Code   RO         2027    i.FLASH_ClearFlag   stm32f10x_flash.o
    0x0800f2a8   0x0000004c   Code   RO         2032    i.FLASH_ErasePage   stm32f10x_flash.o
    0x0800f2f4   0x00000034   Code   RO         2033    i.FLASH_GetBank1Status  stm32f10x_flash.o
    0x0800f328   0x00000014   Code   RO         2042    i.FLASH_Lock        stm32f10x_flash.o
    0x0800f33c   0x00000040   Code   RO         2045    i.FLASH_ProgramHalfWord  stm32f10x_flash.o
    0x0800f37c   0x00000018   Code   RO         2050    i.FLASH_Unlock      stm32f10x_flash.o
    0x0800f394   0x00000026   Code   RO         2054    i.FLASH_WaitForLastOperation  stm32f10x_flash.o
    0x0800f3ba   0x00000002   PAD
    0x0800f3bc   0x00000040   Code   RO         1350    i.GPIO_EXTILineConfig  stm32f10x_gpio.o
    0x0800f3fc   0x00000112   Code   RO         1353    i.GPIO_Init         stm32f10x_gpio.o
    0x0800f50e   0x00000002   PAD
    0x0800f510   0x00000090   Code   RO         1355    i.GPIO_PinRemapConfig  stm32f10x_gpio.o
    0x0800f5a0   0x00000012   Code   RO         1357    i.GPIO_ReadInputDataBit  stm32f10x_gpio.o
    0x0800f5b2   0x00000004   Code   RO         1360    i.GPIO_ResetBits    stm32f10x_gpio.o
    0x0800f5b6   0x00000004   Code   RO         1361    i.GPIO_SetBits      stm32f10x_gpio.o
    0x0800f5ba   0x00000002   PAD
    0x0800f5bc   0x000000d0   Code   RO          576    i.GetAdcValue       adc.o
    0x0800f68c   0x0000003c   Code   RO          577    i.GetBatteryVoltage  adc.o
    0x0800f6c8   0x00000018   Code   RO          371    i.GetBufferStringLenght  guestrespond.o
    0x0800f6e0   0x00000084   Code   RO          578    i.GetBusCurrent     adc.o
    0x0800f764   0x000000e8   Code   RO          579    i.GetBusLeakCurrent  adc.o
    0x0800f84c   0x000000ae   Code   RO          580    i.GetBusVoltage     adc.o
    0x0800f8fa   0x00000002   PAD
    0x0800f8fc   0x000000e0   Code   RO          581    i.GetBusVoltageFromAdcValue  adc.o
    0x0800f9dc   0x00000048   Code   RO          724    i.GetCrc16Value     crc16.o
    0x0800fa24   0x00000074   Code   RO          374    i.GetDecValueFromSeparator  guestrespond.o
    0x0800fa98   0x00000048   Code   RO          375    i.GetGeneralRespondData  guestrespond.o
    0x0800fae0   0x00000028   Code   RO          583    i.GetLinABAdcValue  adc.o
    0x0800fb08   0x00000094   Code   RO          353    i.GpioConfig        systemconfig.o
    0x0800fb9c   0x000009bc   Code   RO          376    i.GuestRespond      guestrespond.o
    0x08010558   0x00000004   Code   RO          273    i.HardFault_Handler  stm32f10x_it.o
    0x0801055c   0x00000014   Code   RO          780    i.I2C_Delay         i2c.o
    0x08010570   0x0000003c   Code   RO          781    i.I2C_FromBusyToIdle  i2c.o
    0x080105ac   0x00000050   Code   RO          782    i.I2C_GPIO_Config   i2c.o
    0x080105fc   0x00000070   Code   RO          787    i.I2C_SendByte      i2c.o
    0x0801066c   0x0000007c   Code   RO          788    i.I2C_Start         i2c.o
    0x080106e8   0x00000050   Code   RO          789    i.I2C_Stop          i2c.o
    0x08010738   0x00000064   Code   RO          790    i.I2C_WaitAck       i2c.o
    0x0801079c   0x0000005e   Code   RO          791    i.I2C_WriteByte     i2c.o
    0x080107fa   0x00000068   Code   RO          792    i.I2C_WriteData     i2c.o
    0x08010862   0x00000002   PAD
    0x08010864   0x00000010   Code   RO         2201    i.IWDG_Enable       stm32f10x_iwdg.o
    0x08010874   0x00000010   Code   RO         2203    i.IWDG_ReloadCounter  stm32f10x_iwdg.o
    0x08010884   0x0000000c   Code   RO         2204    i.IWDG_SetPrescaler  stm32f10x_iwdg.o
    0x08010890   0x0000000c   Code   RO         2205    i.IWDG_SetReload    stm32f10x_iwdg.o
    0x0801089c   0x0000000c   Code   RO         2206    i.IWDG_WriteAccessCmd  stm32f10x_iwdg.o
    0x080108a8   0x0000006c   Code   RO         1062    i.LEDConfig         led.o
    0x08010914   0x00000030   Code   RO          869    i.LcdBufferClear    lcdutils.o
    0x08010944   0x0000002c   Code   RO          870    i.LcdBufferPaint    lcdutils.o
    0x08010970   0x000000c0   Code   RO          871    i.LcdCheckCharHz    lcdutils.o
    0x08010a30   0x00000038   Code   RO         1002    i.LcdClear          lcd.o
    0x08010a68   0x000000c0   Code   RO          874    i.LcdDrawOne        lcdutils.o
    0x08010b28   0x0000009c   Code   RO          875    i.LcdDrawPoint      lcdutils.o
    0x08010bc4   0x0000005c   Code   RO          876    i.LcdDrawString     lcdutils.o
    0x08010c20   0x00000024   Code   RO          877    i.LcdDrawStringCenter  lcdutils.o
    0x08010c44   0x0000005c   Code   RO          878    i.LcdDrawStringHCenter  lcdutils.o
    0x08010ca0   0x000000b6   Code   RO         1005    i.LcdInit           lcd.o
    0x08010d56   0x00000002   PAD
    0x08010d58   0x0000004c   Code   RO          883    i.LcdSetFont        lcdutils.o
    0x08010da4   0x0000000c   Code   RO          884    i.LcdSetFontState   lcdutils.o
    0x08010db0   0x00000024   Code   RO         1007    i.LcdSetPos         lcd.o
    0x08010dd4   0x00000040   Code   RO          886    i.LcdShowStr2Center  lcdutils.o
    0x08010e14   0x00000014   Code   RO          887    i.LcdShowStrCenter  lcdutils.o
    0x08010e28   0x00000010   Code   RO         1008    i.LcdWriteCommand   lcd.o
    0x08010e38   0x00000010   Code   RO         1009    i.LcdWriteData      lcd.o
    0x08010e48   0x00000014   Code   RO         1010    i.LcdWriteDataBytes  lcd.o
    0x08010e5c   0x00000004   Code   RO          274    i.MemManage_Handler  stm32f10x_it.o
    0x08010e60   0x00000002   Code   RO          275    i.NMI_Handler       stm32f10x_it.o
    0x08010e62   0x00000002   PAD
    0x08010e64   0x00000074   Code   RO         1257    i.NVIC_Init         misc.o
    0x08010ed8   0x00000014   Code   RO         1259    i.NVIC_SetVectorTable  misc.o
    0x08010eec   0x000001bc   Code   RO          420    i.OLEDDisplay       midfunction.o
    0x080110a8   0x00000058   Code   RO         3035    i.OSEventNameSet    os_core.o
    0x08011100   0x00000030   Code   RO         3037    i.OSInit            os_core.o
    0x08011130   0x0000000c   Code   RO         2950    i.OSInitHookBegin   os_cpu_c.o
    0x0801113c   0x00000002   Code   RO         2951    i.OSInitHookEnd     os_cpu_c.o
    0x0801113e   0x00000002   PAD
    0x08011140   0x00000024   Code   RO         3038    i.OSIntEnter        os_core.o
    0x08011164   0x00000090   Code   RO         3039    i.OSIntExit         os_core.o
    0x080111f4   0x0000009c   Code   RO         3354    i.OSMutexCreate     os_mutex.o
    0x08011290   0x00000250   Code   RO         3356    i.OSMutexPend       os_mutex.o
    0x080114e0   0x000000c8   Code   RO         3357    i.OSMutexPost       os_mutex.o
    0x080115a8   0x00000084   Code   RO         3359    i.OSMutex_RdyAtPrio  os_mutex.o
    0x0801162c   0x00000040   Code   RO         3040    i.OSSchedLock       os_core.o
    0x0801166c   0x00000060   Code   RO         3041    i.OSSchedUnlock     os_core.o
    0x080116cc   0x00000054   Code   RO         3473    i.OSSemCreate       os_sem.o
    0x08011720   0x000000f0   Code   RO         3475    i.OSSemPend         os_sem.o
    0x08011810   0x00000058   Code   RO         3477    i.OSSemPost         os_sem.o
    0x08011868   0x00000048   Code   RO         3042    i.OSStart           os_core.o
    0x080118b0   0x00000002   Code   RO         2952    i.OSTCBInitHook     os_cpu_c.o
    0x080118b2   0x00000002   PAD
    0x080118b4   0x000000b8   Code   RO         3528    i.OSTaskCreateExt   os_task.o
    0x0801196c   0x00000002   Code   RO         2953    i.OSTaskCreateHook  os_cpu_c.o
    0x0801196e   0x00000002   PAD
    0x08011970   0x00000150   Code   RO         3529    i.OSTaskDel         os_task.o
    0x08011ac0   0x00000002   Code   RO         2954    i.OSTaskDelHook     os_cpu_c.o
    0x08011ac2   0x00000002   Code   RO         2955    i.OSTaskIdleHook    os_cpu_c.o
    0x08011ac4   0x00000070   Code   RO         3532    i.OSTaskNameSet     os_task.o
    0x08011b34   0x000000b0   Code   RO         3536    i.OSTaskResume      os_task.o
    0x08011be4   0x00000002   Code   RO         2957    i.OSTaskStatHook    os_cpu_c.o
    0x08011be6   0x00000002   PAD
    0x08011be8   0x0000008c   Code   RO         3537    i.OSTaskStkChk      os_task.o
    0x08011c74   0x0000009a   Code   RO         2958    i.OSTaskStkInit     os_cpu_c.o
    0x08011d0e   0x00000002   PAD
    0x08011d10   0x000000a8   Code   RO         3538    i.OSTaskSuspend     os_task.o
    0x08011db8   0x00000002   Code   RO         2959    i.OSTaskSwHook      os_cpu_c.o
    0x08011dba   0x00000002   PAD
    0x08011dbc   0x00000078   Code   RO         3622    i.OSTimeDly         os_time.o
    0x08011e34   0x000000f4   Code   RO         3044    i.OSTimeTick        os_core.o
    0x08011f28   0x00000024   Code   RO         2960    i.OSTimeTickHook    os_cpu_c.o
    0x08011f4c   0x00000014   Code   RO         3662    i.OSTmrSignal       os_tmr.o
    0x08011f60   0x000000f4   Code   RO         3668    i.OSTmr_Init        os_tmr.o
    0x08012054   0x00000050   Code   RO         3669    i.OSTmr_InitTask    os_tmr.o
    0x080120a4   0x0000006c   Code   RO         3670    i.OSTmr_Link        os_tmr.o
    0x08012110   0x00000080   Code   RO         3671    i.OSTmr_Task        os_tmr.o
    0x08012190   0x00000044   Code   RO         3672    i.OSTmr_Unlink      os_tmr.o
    0x080121d4   0x00000002   Code   RO         3046    i.OS_Dummy          os_core.o
    0x080121d6   0x00000002   PAD
    0x080121d8   0x00000094   Code   RO         3047    i.OS_EventTaskRdy   os_core.o
    0x0801226c   0x0000002a   Code   RO         3048    i.OS_EventTaskRemove  os_core.o
    0x08012296   0x0000003c   Code   RO         3049    i.OS_EventTaskRemoveMulti  os_core.o
    0x080122d2   0x00000002   PAD
    0x080122d4   0x0000007c   Code   RO         3050    i.OS_EventTaskWait  os_core.o
    0x08012350   0x0000001c   Code   RO         3052    i.OS_EventWaitListInit  os_core.o
    0x0801236c   0x00000060   Code   RO         3053    i.OS_InitEventList  os_core.o
    0x080123cc   0x00000054   Code   RO         3054    i.OS_InitMisc       os_core.o
    0x08012420   0x00000044   Code   RO         3055    i.OS_InitRdyList    os_core.o
    0x08012464   0x00000074   Code   RO         3056    i.OS_InitTCBList    os_core.o
    0x080124d8   0x00000050   Code   RO         3057    i.OS_InitTaskIdle   os_core.o
    0x08012528   0x00000050   Code   RO         3058    i.OS_InitTaskStat   os_core.o
    0x08012578   0x00000012   Code   RO         3059    i.OS_MemClr         os_core.o
    0x0801258a   0x00000002   PAD
    0x0801258c   0x00000058   Code   RO         3311    i.OS_MemInit        os_mem.o
    0x080125e4   0x00000050   Code   RO         3410    i.OS_QInit          os_q.o
    0x08012634   0x00000074   Code   RO         3061    i.OS_Sched          os_core.o
    0x080126a8   0x0000002c   Code   RO         3062    i.OS_SchedNew       os_core.o
    0x080126d4   0x0000013c   Code   RO         3064    i.OS_TCBInit        os_core.o
    0x08012810   0x00000028   Code   RO         3065    i.OS_TaskIdle       os_core.o
    0x08012838   0x00000088   Code   RO         3066    i.OS_TaskStat       os_core.o
    0x080128c0   0x0000003c   Code   RO         3067    i.OS_TaskStatStkChk  os_core.o
    0x080128fc   0x0000001a   Code   RO         3540    i.OS_TaskStkClr     os_task.o
    0x08012916   0x00000002   PAD
    0x08012918   0x000000b4   Code   RO         1074    i.Pack              package.o
    0x080129cc   0x00000028   Code   RO         1075    i.PackageKeyInit    package.o
    0x080129f4   0x0000001c   Code   RO          422    i.Queue_Init        midfunction.o
    0x08012a10   0x000000e0   Code   RO          423    i.Queue_push        midfunction.o
    0x08012af0   0x00000018   Code   RO         1461    i.RCC_ADCCLKConfig  stm32f10x_rcc.o
    0x08012b08   0x00000020   Code   RO         1463    i.RCC_APB1PeriphClockCmd  stm32f10x_rcc.o
    0x08012b28   0x00000020   Code   RO         1465    i.RCC_APB2PeriphClockCmd  stm32f10x_rcc.o
    0x08012b48   0x000000dc   Code   RO         1473    i.RCC_GetClocksFreq  stm32f10x_rcc.o
    0x08012c24   0x00000044   Code   RO         1202    i.Read374Block      ch374interface.o
    0x08012c68   0x00000034   Code   RO         1203    i.Read374Byte       ch374interface.o
    0x08012c9c   0x00000090   Code   RO          491    i.ReadFactoryConfigParam  recorder.o
    0x08012d2c   0x00000088   Code   RO          492    i.ReadFlashDataWithCRC16  recorder.o
    0x08012db4   0x00000018   Code   RO         1666    i.SPI_Cmd           stm32f10x_spi.o
    0x08012dcc   0x00000012   Code   RO         1674    i.SPI_I2S_GetFlagStatus  stm32f10x_spi.o
    0x08012dde   0x00000006   Code   RO         1677    i.SPI_I2S_ReceiveData  stm32f10x_spi.o
    0x08012de4   0x00000004   Code   RO         1678    i.SPI_I2S_SendData  stm32f10x_spi.o
    0x08012de8   0x0000003c   Code   RO         1679    i.SPI_Init          stm32f10x_spi.o
    0x08012e24   0x00000018   Code   RO          424    i.STMOpen           midfunction.o
    0x08012e3c   0x00000002   Code   RO          277    i.SVC_Handler       stm32f10x_it.o
    0x08012e3e   0x00000002   PAD
    0x08012e40   0x0000003c   Code   RO          493    i.SetStayInBoot     recorder.o
    0x08012e7c   0x00000008   Code   RO           24    i.SetSysClock       system_stm32f10x.o
    0x08012e84   0x000000dc   Code   RO           25    i.SetSysClockTo72   system_stm32f10x.o
    0x08012f60   0x00000078   Code   RO         1102    i.SlipSimpleCheck   slip.o
    0x08012fd8   0x00000086   Code   RO         1103    i.Slip_Pack         slip.o
    0x0801305e   0x000000a0   Code   RO         1104    i.Slip_Unpack       slip.o
    0x080130fe   0x00000002   PAD
    0x08013100   0x00000030   Code   RO          494    i.SoftReset         recorder.o
    0x08013130   0x00000048   Code   RO          425    i.Sound             midfunction.o
    0x08013178   0x00000064   Code   RO          739    i.SysTickConfig     delay.o
    0x080131dc   0x00000020   Code   RO          278    i.SysTick_Handler   stm32f10x_it.o
    0x080131fc   0x0000001c   Code   RO          740    i.System72MDelay100us  delay.o
    0x08013218   0x0000001c   Code   RO          741    i.System72MDelay10us  delay.o
    0x08013234   0x00000018   Code   RO          742    i.System72MDelay1ms  delay.o
    0x0801324c   0x00000010   Code   RO          743    i.System72MDelay1us  delay.o
    0x0801325c   0x0000004c   Code   RO          354    i.SystemGpioConfig  systemconfig.o
    0x080132a8   0x00000060   Code   RO           27    i.SystemInit        system_stm32f10x.o
    0x08013308   0x00000030   Code   RO          279    i.TIM3_IRQHandler   stm32f10x_it.o
    0x08013338   0x00000006   Code   RO         2254    i.TIM_ClearITPendingBit  stm32f10x_tim.o
    0x0801333e   0x00000022   Code   RO         2280    i.TIM_GetITStatus   stm32f10x_tim.o
    0x08013360   0x00000168   Code   RO          108    i.TaskCreate        task.o
    0x080134c8   0x00000072   Code   RO          584    i.U16DataFallRank   adc.o
    0x0801353a   0x00000002   PAD
    0x0801353c   0x000000c4   Code   RO         1076    i.Unpack            package.o
    0x08013600   0x00000004   Code   RO          280    i.UsageFault_Handler  stm32f10x_it.o
    0x08013604   0x0000004c   Code   RO          428    i.UsbIdentify       midfunction.o
    0x08013650   0x00000008   Code   RO          537    i.WatchDogFeed      watchdog.o
    0x08013658   0x00000022   Code   RO          538    i.WatchDogInit      watchdog.o
    0x0801367a   0x00000002   PAD
    0x0801367c   0x00000044   Code   RO         1204    i.Write374Block     ch374interface.o
    0x080136c0   0x00000034   Code   RO         1205    i.Write374Byte      ch374interface.o
    0x080136f4   0x00000078   Code   RO          495    i.WriteFactoryConfigParam  recorder.o
    0x0801376c   0x000000b4   Code   RO          496    i.WriteFlashDataWithCRC16  recorder.o
    0x08013820   0x00000028   Code   RO         3949    i.__ARM_fpclassify  m_ws.l(fpclassify.o)
    0x08013848   0x0000000e   Code   RO         3776    i._is_digit         c_w.l(__printf_wp.o)
    0x08013856   0x00000002   PAD
    0x08013858   0x00001044   Code   RO          686    i.aes_decrypt       aes.o
    0x0801489c   0x00001040   Code   RO          687    i.aes_encrypt       aes.o
    0x080158dc   0x00000002   Code   RO          688    i.aes_gen_tables    aes.o
    0x080158de   0x00000002   PAD
    0x080158e0   0x000003d4   Code   RO          689    i.aes_set_key       aes.o
    0x08015cb4   0x00000022   Code   RO          555    i.main              main.o
    0x08015cd6   0x00000002   PAD
    0x08015cd8   0x0000002c   Code   RO         3945    locale$$code        c_w.l(lc_numeric_c.o)
    0x08015d04   0x0000002c   Code   RO         4014    locale$$code        c_w.l(lc_ctype_c.o)
    0x08015d30   0x00000062   Code   RO         3812    x$fpl$d2f           fz_ws.l(d2f.o)
    0x08015d92   0x00000002   PAD
    0x08015d94   0x000002b0   Code   RO         3815    x$fpl$ddiv          fz_ws.l(ddiv.o)
    0x08016044   0x0000005e   Code   RO         3818    x$fpl$dfix          fz_ws.l(dfix.o)
    0x080160a2   0x00000002   PAD
    0x080160a4   0x0000005a   Code   RO         3822    x$fpl$dfixu         fz_ws.l(dfixu.o)
    0x080160fe   0x00000026   Code   RO         3826    x$fpl$dfltu         fz_ws.l(dflt_clz.o)
    0x08016124   0x00000154   Code   RO         3832    x$fpl$dmul          fz_ws.l(dmul.o)
    0x08016278   0x0000009c   Code   RO         3880    x$fpl$dnaninf       fz_ws.l(dnaninf.o)
    0x08016314   0x0000000c   Code   RO         3882    x$fpl$dretinf       fz_ws.l(dretinf.o)
    0x08016320   0x00000056   Code   RO         3834    x$fpl$f2d           fz_ws.l(f2d.o)
    0x08016376   0x00000002   PAD
    0x08016378   0x000000c4   Code   RO         3836    x$fpl$fadd          fz_ws.l(faddsub_clz.o)
    0x0801643c   0x00000184   Code   RO         3843    x$fpl$fdiv          fz_ws.l(fdiv.o)
    0x080165c0   0x00000036   Code   RO         3846    x$fpl$ffix          fz_ws.l(ffix.o)
    0x080165f6   0x00000002   PAD
    0x080165f8   0x0000003e   Code   RO         3850    x$fpl$ffixu         fz_ws.l(ffixu.o)
    0x08016636   0x00000002   PAD
    0x08016638   0x00000030   Code   RO         3855    x$fpl$fflt          fz_ws.l(fflt_clz.o)
    0x08016668   0x00000026   Code   RO         3854    x$fpl$ffltu         fz_ws.l(fflt_clz.o)
    0x0801668e   0x00000002   PAD
    0x08016690   0x00000102   Code   RO         3860    x$fpl$fmul          fz_ws.l(fmul.o)
    0x08016792   0x0000008c   Code   RO         3884    x$fpl$fnaninf       fz_ws.l(fnaninf.o)
    0x0801681e   0x0000000a   Code   RO         3886    x$fpl$fretinf       fz_ws.l(fretinf.o)
    0x08016828   0x000000ea   Code   RO         3838    x$fpl$fsub          fz_ws.l(faddsub_clz.o)
    0x08016912   0x00000004   Code   RO         3862    x$fpl$printf1       fz_ws.l(printf1.o)
    0x08016916   0x00000000   Code   RO         3888    x$fpl$usenofp       fz_ws.l(usenofp.o)
    0x08016916   0x00000002   PAD
    0x08016918   0x00002828   Data   RO          691    .constdata          aes.o
    0x08019140   0x00000200   Data   RO          725    .constdata          crc16.o
    0x08019340   0x00001cb2   Data   RO          889    .constdata          lcdutils.o
    0x0801aff2   0x00000020   Data   RO         1139    .constdata          ch374device.o
    0x0801b012   0x00000061   Data   RO         1164    .constdata          ch374devicehid.o
    0x0801b073   0x00000100   Data   RO         3069    .constdata          os_core.o
    0x0801b173   0x00000011   Data   RO         3779    .constdata          c_w.l(__printf_flags_wp.o)
    0x0801b184   0x00000094   Data   RO         3920    .constdata          c_w.l(bigflt0.o)
    0x0801b218   0x00000020   Data   RO         4092    Region$$Table       anon$$obj.o
    0x0801b238   0x0000001c   Data   RO         3944    locale$$data        c_w.l(lc_numeric_c.o)
    0x0801b254   0x00000110   Data   RO         4013    locale$$data        c_w.l(lc_ctype_c.o)


    Execution Region RW_IRAM1 (Base: 0x20000000, Size: 0x00004c70, Max: 0x0000c000, ABSOLUTE)

    Base Addr    Size         Type   Attr      Idx    E Section Name        Object

    0x20000000   0x00000009   Data   RW          110    .data               task.o
    0x20000009   0x00000003   PAD
    0x2000000c   0x00000004   Data   RW          281    .data               stm32f10x_it.o
    0x20000010   0x00000004   Data   RW          586    .data               adc.o
    0x20000014   0x00000008   Data   RW          692    .data               aes.o
    0x2000001c   0x0000000c   Data   RW          890    .data               lcdutils.o
    0x20000028   0x00000008   Data   RW         1140    .data               ch374device.o
    0x20000030   0x00000001   Data   RW         1165    .data               ch374devicehid.o
    0x20000031   0x00000014   Data   RW         1493    .data               stm32f10x_rcc.o
    0x20000045   0x00000001   PAD
    0x20000046   0x00000002   Data   RW         2961    .data               os_cpu_c.o
    0x20000048   0x0000005c   Data   RW         3070    .data               os_core.o
    0x200000a4   0x00000004   PAD
    0x200000a8   0x00001241   Zero   RW          109    .bss                task.o
    0x200012e9   0x00000001   PAD
    0x200012ea   0x00000808   Zero   RW          377    .bss                guestrespond.o
    0x20001af2   0x000000cc   Zero   RW          429    .bss                midfunction.o
    0x20001bbe   0x00000002   PAD
    0x20001bc0   0x00000030   Zero   RW          585    .bss                adc.o
    0x20001bf0   0x00001000   Zero   RW          690    .bss                aes.o
    0x20002bf0   0x00000180   Zero   RW          888    .bss                lcdutils.o
    0x20002d70   0x00000204   Zero   RW         1077    .bss                package.o
    0x20002f74   0x0000002c   Zero   RW         1138    .bss                ch374device.o
    0x20002fa0   0x00000404   Zero   RW         1163    .bss                ch374devicehid.o
    0x200033a4   0x00001268   Zero   RW         3068    .bss                os_core.o
    0x2000460c   0x00000060   Zero   RW         3952    .bss                c_w.l(libspace.o)
    0x2000466c   0x00000004   PAD
    0x20004670   0x00000200   Zero   RW           18    HEAP                startup_stm32f10x_hd.o
    0x20004870   0x00000400   Zero   RW           17    STACK               startup_stm32f10x_hd.o


==============================================================================

Image component sizes


      Code (inc. data)   RO Data    RW Data    ZI Data      Debug   Object Name

      1724        100          0          4         48      10602   adc.o
      9306         92      10280          8       4096      14669   aes.o
      1304         66         32          8         44       2685   ch374device.o
       300         24         97          1       1028       2873   ch374devicehid.o
       700         50          0          0          0       4664   ch374interface.o
         0          0          0          0          0       4244   core_cm3.o
        72          8        512          0          0       1164   crc16.o
       196          8          0          0          0      17534   delay.o
      2704        128          0          0       2056       4504   guestrespond.o
       774         32          0          0          0       4783   i2c.o
       326          0          0          0          0       3170   lcd.o
      1024         98       7346         12        384       8885   lcdutils.o
       108         12          0          0          0        464   led.o
        34          0          0          0          0        423   main.o
       898        128          0          0        204       4067   midfunction.o
       136         22          0          0          0       1518   misc.o
      2450        416        256         92       4712      22916   os_core.o
       164         32          0          0          0        292   os_cpu_a.o
       216         10          0          2          0      13621   os_cpu_c.o
        88         14          0          0          0        501   os_mem.o
      1080         72          0          0          0       3612   os_mutex.o
        80          8          0          0          0        527   os_q.o
       412         24          0          0          0       2250   os_sem.o
      1142        112          0          0          0       5688   os_task.o
       120         20          0          0          0        588   os_time.o
       648        138          0          0          0       3591   os_tmr.o
       416         36          0          0        516       2145   package.o
       688         58          0          0          0      18973   recorder.o
       414          0          0          0          0       2268   slip.o
        64         26        304          0       1536        788   startup_stm32f10x_hd.o
       400         10          0          0          0       8289   stm32f10x_adc.o
       200         18          0          0          0       2040   stm32f10x_exti.o
       286         36          0          0          0       3784   stm32f10x_flash.o
       508         10          0          0          0       4972   stm32f10x_gpio.o
       132         16          0          4          0       5348   stm32f10x_it.o
        68         30          0          0          0       2382   stm32f10x_iwdg.o
       308         46          0         20          0       4865   stm32f10x_rcc.o
       112          0          0          0          0       3714   stm32f10x_spi.o
        40          0          0          0          0       1702   stm32f10x_tim.o
       324         26          0          0          0     268305   system_stm32f10x.o
       224         16          0          0          0        984   systemconfig.o
       656        100          0          9       4673      25134   task.o
        42          0          0          0          0        826   watchdog.o

    ----------------------------------------------------------------------
     30944       2042      18859        164      19304     496354   Object Totals
         0          0         32          0          0          0   (incl. Generated)
        56          0          0          4          7          0   (incl. Padding)

    ----------------------------------------------------------------------

      Code (inc. data)   RO Data    RW Data    ZI Data      Debug   Library Member Name

        60          8          0          0          0         84   __0sscanf.o
        44          6          0          0          0         84   __2sprintf.o
         8          0          0          0          0         68   __main.o
       316          6         17          0          0         92   __printf_flags_wp.o
        14          0          0          0          0         68   __printf_wp.o
        52          8          0          0          0          0   __scatter.o
        26          0          0          0          0          0   __scatter_copy.o
        28          0          0          0          0          0   __scatter_zi.o
        28          0          0          0          0         68   _chval.o
        48          6          0          0          0         96   _printf_char_common.o
         6          0          0          0          0          0   _printf_d.o
       120         18          0          0          0         92   _printf_dec.o
         6          0          0          0          0          0   _printf_f.o
      1056          0          0          0          0        216   _printf_fp_dec.o
       128         16          0          0          0         84   _printf_fp_infnan.o
       184          0          0          0          0         88   _printf_intcommon.o
        82          0          0          0          0        108   _printf_pad.o
         0          0          0          0          0          0   _printf_percent.o
         4          0          0          0          0          0   _printf_percent_end.o
         6          0          0          0          0          0   _printf_u.o
       880          4          0          0          0        100   _scanf.o
       336          0          0          0          0         96   _scanf_int.o
        64          0          0          0          0         84   _sgetc.o
        10          0          0          0          0         68   _sputc.o
       228          6        148          0          0         96   bigflt0.o
      1910        128          0          0          0        672   btod.o
        12          0          0          0          0         72   exit.o
         6          0          0          0          0        152   heapauxi.o
         0          0          0          0          0          0   indicate_semi.o
        18          0          0          0          0         76   isspace.o
        44         10        272          0          0         76   lc_ctype_c.o
        44         10         28          0          0         76   lc_numeric_c.o
         2          0          0          0          0          0   libinit.o
        30          0          0          0          0          0   libinit2.o
         2          0          0          0          0          0   libshutdown.o
         2          0          0          0          0          0   libshutdown2.o
         8          4          0          0         96         68   libspace.o
       138          0          0          0          0         80   lludiv10.o
        88          0          0          0          0         76   memcmp.o
        16          4          0          0          0         76   rt_ctype_table.o
         8          4          0          0          0         68   rt_locale_intlibspace.o
        68          0          0          0          0         68   rt_memclr.o
        78          0          0          0          0         80   rt_memclr_w.o
       138          0          0          0          0         68   rt_memcpy_v6.o
       100          0          0          0          0         80   rt_memcpy_w.o
         0          0          0          0          0          0   rtentry.o
        12          0          0          0          0          0   rtentry2.o
         6          0          0          0          0          0   rtentry4.o
         2          0          0          0          0          0   rtexit.o
        10          0          0          0          0          0   rtexit2.o
        44          8          0          0          0         84   scanf_char.o
       128          0          0          0          0         68   strcmpv7m.o
        72          0          0          0          0         80   strcpy.o
        86          0          0          0          0         76   strncpy.o
        12          4          0          0          0         68   sys_exit.o
        74          0          0          0          0         80   sys_stackheap_outer.o
         2          0          0          0          0         68   use_no_semi.o
        98          4          0          0          0         92   d2f.o
       688        140          0          0          0        208   ddiv.o
        94          4          0          0          0         92   dfix.o
        90          4          0          0          0         92   dfixu.o
        38          0          0          0          0         68   dflt_clz.o
       340         12          0          0          0        104   dmul.o
       156          4          0          0          0         92   dnaninf.o
        12          0          0          0          0         68   dretinf.o
        86          4          0          0          0         84   f2d.o
       430          8          0          0          0        168   faddsub_clz.o
       388         76          0          0          0         96   fdiv.o
        54          4          0          0          0         84   ffix.o
        62          4          0          0          0         84   ffixu.o
        86          0          0          0          0        136   fflt_clz.o
       258          4          0          0          0         84   fmul.o
       140          4          0          0          0         84   fnaninf.o
        10          0          0          0          0         68   fretinf.o
         4          0          0          0          0         68   printf1.o
         0          0          0          0          0          0   usenofp.o
        40          0          0          0          0         68   fpclassify.o

    ----------------------------------------------------------------------
      9992        522        465          0        100       5744   Library Totals
        24          0          0          0          4          0   (incl. Padding)

    ----------------------------------------------------------------------

      Code (inc. data)   RO Data    RW Data    ZI Data      Debug   Library Name

      6894        250        465          0         96       3904   c_w.l
      3034        272          0          0          0       1772   fz_ws.l
        40          0          0          0          0         68   m_ws.l

    ----------------------------------------------------------------------
      9992        522        465          0        100       5744   Library Totals

    ----------------------------------------------------------------------

==============================================================================


      Code (inc. data)   RO Data    RW Data    ZI Data      Debug   

     40936       2564      19324        164      19404     487330   Grand Totals
     40936       2564      19324        164      19404     487330   ELF Image Totals
     40936       2564      19324        164          0          0   ROM Totals

==============================================================================

    Total RO  Size (Code + RO Data)                60260 (  58.85kB)
    Total RW  Size (RW Data + ZI Data)             19568 (  19.11kB)
    Total ROM Size (Code + RO Data + RW Data)      60424 (  59.01kB)

==============================================================================

